(dp0
S'data'
p1
(lp2
(lp3
F-1.0
aF0.621752044237234
aF-0.7248163775839065
aF0.8569917914390905
aF-0.3818954002141739
aF0.2981203578725909
aF0.7106726633313453
aF-0.7942916616974806
aF0.07057171057771239
aF0.0702837120064447
aF0.15858922956754565
aa(lp4
F-1.0
aF0.5902161989759492
aF-0.636492112761512
aF0.9344735492100987
aF-0.2878562699813325
aF0.24841503472009518
aF0.6479375685579225
aF-0.6911544051766279
aF0.06687423829183324
aF0.0669401753711599
aF0.13608101992121135
aa(lp5
F-1.0
aF0.567429359709238
aF-0.6177998596937638
aF0.9344778173524106
aF-0.3023986873651555
aF0.25858652146568134
aF0.6148441826795404
aF-0.6664502867040578
aF0.06651308780245448
aF0.0666248616503227
aF0.13120032954614855
aa(lp6
F-1.0
aF0.5651099481357297
aF-0.6224899309050115
aF0.920302306450037
aF-0.3056389629970346
aF0.25576421316826164
aF0.5965986646111691
aF-0.6525568985359176
aF0.06669770421608397
aF0.06680148949078907
aF0.12907253466356272
aa(lp7
F-0.6198236825733157
aF0.8973444343353824
aF-0.6032844660595191
aF1.0
aF-0.23278780843369587
aF0.4770807974001483
aF0.6459954360048727
aF-0.42301485371910386
aF0.10034895449787976
aF0.10148746498319784
aF0.14199890862385914
aa(lp8
F-1.0
aF0.5342507419788876
aF-0.7175456713615259
aF0.7935915458132744
aF-0.3669009656638389
aF0.2041179039585943
aF0.5325909981441149
aF-0.728873436947553
aF0.07719131805624221
aF0.07706326916295785
aF0.13763646618373318
aa(lp9
F-0.942399128801941
aF0.6152637893908501
aF-0.5548773604017785
aF1.0
aF-0.33084680759691953
aF0.3829527868220634
aF0.622038697375457
aF-0.5535969276812346
aF0.07781534079825295
aF0.07778329282615985
aF0.14396833659128958
aa(lp10
F-1.0
aF0.6327161653376667
aF-0.6975805013825761
aF0.9318382739862183
aF-0.40784373421531106
aF0.36837203112663874
aF0.6503307394782504
aF-0.6971494690119208
aF0.098910075057197
aF0.09994695810896503
aF0.17172372729505342
aa(lp11
F-1.0
aF0.5715110860675913
aF-0.6379734461297877
aF0.9293060972810678
aF-0.3903368808830573
aF0.31832723981396976
aF0.6101069402893112
aF-0.6902814330313881
aF0.08315081015073984
aF0.08314158879810975
aF0.17030425517233302
aa(lp12
F-0.4855233799282857
aF0.7440991650476049
aF-0.6551326057865834
aF0.5783230251783568
aF-0.03416120018795799
aF0.0940506784054317
aF1.0
aF-0.9088022699229822
aF0.0843059656486449
aF0.08466154940085555
aF0.16022628683985135
aa(lp13
F-0.8664489723944141
aF0.8005031209964888
aF-0.683783003572642
aF1.0
aF-0.2705104045269271
aF0.3513052142305995
aF0.9063764051586758
aF-0.7974813193512377
aF0.08572938710676944
aF0.08603285279296051
aF0.19197020461516928
aa(lp14
F-0.8774778810128626
aF0.7020747658213222
aF-0.6090064981305169
aF1.0
aF-0.27782347767013443
aF0.34161460593110426
aF0.743863847564668
aF-0.6644228358690867
aF0.08054178746435264
aF0.08079482567058426
aF0.1640836264025717
aa(lp15
F-1.0
aF0.5510066189169056
aF-0.6329223221664704
aF0.8922595732127113
aF-0.3072201766183341
aF0.23992861220384318
aF0.5559607591867599
aF-0.6346728508334561
aF0.06859882707379347
aF0.06867660535359002
aF0.1262257829948942
aa(lp16
F-1.0
aF0.6831881075423029
aF-0.6990010062624978
aF0.9778308630522106
aF-0.28248945491606586
aF0.2699620451208214
aF0.6316866042914998
aF-0.6435227344412564
aF0.07778315789299778
aF0.0779755712463407
aF0.13496356764654965
aa(lp17
F-1.0
aF0.5455732607638499
aF-0.6247481529607943
aF0.907271305040819
aF-0.42002632932863176
aF0.3477833082525042
aF0.4784283916809609
aF-0.5568248007255205
aF0.07603607352347076
aF0.07603901890031767
aF0.1370159070994
aa(lp18
F-1.0
aF0.6014644944172161
aF-0.6979570050034394
aF0.8568000606703372
aF-0.3381027321889386
aF0.23413490545949397
aF0.5526298662645478
aF-0.6492746409089142
aF0.08813292425561389
aF0.08852805986365786
aF0.14357704942773958
aa(lp19
F-1.0
aF0.48786034075516943
aF-0.5853323599919441
aF0.8347004793831452
aF-0.28143348224395587
aF0.1847863810530495
aF0.4220652603665303
aF-0.5100767592189356
aF0.07785078211875247
aF0.0779198157204061
aF0.11591726895626735
aa(lp20
F-1.0
aF0.4572782402839331
aF-0.4827908699823444
aF0.8582900052694781
aF-0.22625926032912355
aF0.17489144445864177
aF0.45551720756680286
aF-0.46905810200510745
aF0.061796868516424255
aF0.061947873483192466
aF0.10949016698155117
aa(lp21
F-1.0
aF0.5918488780493032
aF-0.6742261705087659
aF0.9025997083008515
aF-0.3681758438539493
aF0.28825749260314437
aF0.5779810316355627
aF-0.6699928534556069
aF0.07475284794164896
aF0.07484060890379976
aF0.14832029442285616
aa(lp22
F-1.0
aF0.5982034687125091
aF-0.6640581719698284
aF0.9003769435821517
aF-0.32786625677644726
aF0.26154137537647215
aF0.5866289685494545
aF-0.6522156883779077
aF0.07103242593542627
aF0.07106938257980595
aF0.14245100510423236
aa(lp23
F-1.0
aF0.4234532981845254
aF-0.8370568462788015
aF0.5367550366054767
aF-0.5040199370238119
aF0.14756627335434777
aF0.35091770378999537
aF-0.7395383481814496
aF0.08298001330022733
aF0.08223461269801853
aF0.14718477661394183
aa(lp24
F-0.9764336791064196
aF0.7509641699345176
aF-0.7503516619738367
aF1.0
aF-0.3237031250792085
aF0.31378027777968576
aF0.6694408784236398
aF-0.6837418305746289
aF0.09547835849814779
aF0.0957707084283952
aF0.16365078896602014
aa(lp25
F-0.9583047200540543
aF0.8022275365224427
aF-0.7794092644471181
aF1.0
aF-0.32517625848293874
aF0.33451633457485774
aF0.745816478399889
aF-0.7335793175712135
aF0.09648341872705764
aF0.09669636718820261
aF0.17710043450486393
aa(lp26
F-1.0
aF0.6874253130323266
aF-0.7871120216721362
aF0.9067934376127809
aF-0.34914548888647295
aF0.2553572817455534
aF0.653462820442693
aF-0.7653283165055212
aF0.09154636877995821
aF0.09160495235746963
aF0.16660128605442306
aa(lp27
F-1.0
aF0.7785896251355484
aF-0.890300695524051
aF0.9435891800871461
aF-0.4522726704934096
aF0.34732014266323313
aF0.6972423523007093
aF-0.8362238008003063
aF0.11729150551644181
aF0.11716766570131505
aF0.18953859401189296
aa(lp28
F-0.904349278253533
aF0.6604528498867831
aF-0.5978780768154394
aF1.0
aF-0.2561307496458087
aF0.2821893681549201
aF0.5120233503630844
aF-0.478659931661218
aF0.08815661599153038
aF0.08857400945069346
aF0.1269007733967753
aa(lp29
F-0.9580123820148548
aF0.9633076310700405
aF-1.0
aF0.9383540143613557
aF-0.4417259718200349
aF0.3752925813405742
aF0.8147292257982203
aF-0.8912106681210292
aF0.125307330295673
aF0.12573418682617718
aF0.23493451265369053
aa(lp30
F-0.9978164126296727
aF0.5467631559898992
aF-0.546930164517356
aF1.0
aF-0.2630944602174958
aF0.24339122505101113
aF0.39290128802874175
aF-0.40691723861724227
aF0.07619347320256788
aF0.0763386315149044
aF0.10332311373686755
aa(lp31
F-1.0
aF0.5583052622657756
aF-0.5713879263789162
aF0.9551646372511388
aF-0.36021348971039074
aF0.33340152114642935
aF0.4864101865872573
aF-0.4980341483175029
aF0.07292623038195929
aF0.07324355939020984
aF0.12769415646729065
aa(lp32
F-1.0
aF0.4235371477341924
aF-0.6079493628480718
aF0.7656600610646297
aF-0.44082477303187484
aF0.2743200472630776
aF0.30802015170933444
aF-0.4837348252231827
aF0.07002690196272222
aF0.0697445611545339
aF0.11299726125096535
aa(lp33
F-0.9392733512429524
aF0.6958908522787103
aF-0.6435871302875209
aF1.0
aF-0.4022575723900798
aF0.4446032288005094
aF0.6932601756520794
aF-0.6413135727880906
aF0.08186274096897114
aF0.08190757644433469
aF0.16012821618008935
aa(lp34
F-0.9149173856696502
aF0.6077770517967777
aF-0.5441089583278466
aF1.0
aF-0.3849132845549424
aF0.4511878329560441
aF0.5719652057667396
aF-0.5056014975745315
aF0.0750997014705786
aF0.07503539109270237
aF0.14314657877816014
aa(lp35
F-0.9058357137522504
aF0.4955642475105334
aF-0.4228108046523351
aF1.0
aF-0.40898716250354644
aF0.5033459017881017
aF0.3914817323601446
aF-0.30864647010506985
aF0.06883581307401987
aF0.06871830229472445
aF0.11727786569478721
aa(lp36
F-1.0
aF0.5651741475154517
aF-0.7036589174187582
aF0.8076155014688164
aF-0.2971864344853835
aF0.1703524813810276
aF0.8102907943067917
aF-0.9612845100598708
aF0.06772064757560717
aF0.0674435370881022
aF0.1776559736536362
aa(lp37
F-1.0
aF0.634566454700665
aF-0.7729369975251698
aF0.8259550145934156
aF-0.3108781426519872
aF0.18610387601576892
aF0.8442774394431218
aF-0.9977815913355399
aF0.07211308640791719
aF0.07191305975067389
aF0.18843158893875997
aa(lp38
F-0.837323075724533
aF0.7927583666226077
aF-0.8087310437497082
aF0.838882425290598
aF-0.11579001873377769
aF0.07872840357967248
aF0.9600252024063027
aF-1.0
aF0.11087854752751539
aF0.11082400237352465
aF0.20673863070134418
aa(lp39
F-1.0
aF0.48428615011367454
aF-0.6189990585944035
aF0.7786342100248745
aF-0.25847633200282066
aF0.14318995460162337
aF0.5012025819664698
aF-0.613627369340226
aF0.07531964697694725
aF0.07501246072317629
aF0.13581016750463362
aa(lp40
F-1.0
aF0.60809224338865
aF-0.7063470912837515
aF0.8570340660606756
aF-0.261442643449399
aF0.1641683334997471
aF0.6869811358661485
aF-0.7844215814004792
aF0.08318589352561853
aF0.08306720476864149
aF0.16392455266166112
aa(lp41
F-0.6302829053592331
aF0.6822274359029147
aF-0.44763855967427485
aF1.0
aF-0.14804389990207148
aF0.3766149224535289
aF0.722347953311161
aF-0.506542270669593
aF0.07375476224252901
aF0.0740816156959975
aF0.14763966192766628
aa(lp42
F-0.6775987618928512
aF0.6222819555594103
aF-0.40471818555689754
aF1.0
aF-0.1816477279883375
aF0.35555660222035435
aF0.6735493783339013
aF-0.47483088383559924
aF0.060374143766832956
aF0.06076650516804008
aF0.13154807640680852
aa(lp43
F-0.6073739957402929
aF0.8914530685393438
aF-0.5995267241608029
aF1.0
aF-0.2256407166709417
aF0.4626904707714407
aF0.7415929461347628
aF-0.5344546904315562
aF0.08949971797635288
aF0.08988110794715196
aF0.1722152392488646
aa(lp44
F-1.0
aF0.45913714160133023
aF-0.6702026519302773
aF0.7234300996982264
aF-0.3787247489213847
aF0.16958904232510497
aF0.6505878602782095
aF-0.8954537079192946
aF0.06724038585766186
aF0.06697081000279625
aF0.17546191496089367
aa(lp45
F-0.9106007635877622
aF0.7033261858184492
aF-0.6322133450415608
aF1.0
aF-0.3074830965842495
aF0.3648193371164482
aF0.63264075161342
aF-0.5693550333011922
aF0.08733611773862981
aF0.08793164535404407
aF0.1468320223119409
aa(lp46
F-0.7310856125094636
aF0.6217418967160627
aF-0.4229080579005296
aF1.0
aF-0.18079552859843284
aF0.34586134444224137
aF0.5762577616187482
aF-0.39025024385788887
aF0.07001092318220226
aF0.0705964793157847
aF0.11639825001450062
aa(lp47
F-1.0
aF0.5643727646113399
aF-0.6960889175233037
aF0.8360883548028817
aF-0.3503195411930507
aF0.23797450811218906
aF0.5333894846641268
aF-0.664511186668747
aF0.07120509931438852
aF0.07130691127413769
aF0.13800978685602633
aa(lp48
F-1.0
aF0.4739824332252704
aF-0.9377298633854084
aF0.5036290779639674
aF-0.4971067008582064
aF0.12350893175905707
aF0.4182056905292492
aF-0.838553548557267
aF0.08154861664420579
aF0.08064257532773583
aF0.15481183331164305
aa(lp49
F-1.0
aF0.4161231331130288
aF-0.9495139868779918
aF0.4250097885265653
aF-0.5051139343474391
aF0.08392871481839961
aF0.3727356832600186
aF-0.8464331229425214
aF0.07826747645877918
aF0.07727564585914981
aF0.14753114739391845
aa(lp50
F-1.0
aF0.7380898908041782
aF-0.9663726524185318
aF0.7245648024920182
aF-0.43193754870923334
aF0.24952917300817062
aF0.7946381629116247
aF-0.9827822541469805
aF0.09449740758814665
aF0.09422433232709615
aF0.20838369076821334
aa(lp51
F-1.0
aF0.7621914082152943
aF-0.9217275151239145
aF0.8301470054503841
aF-0.4274308065826484
aF0.2991421652387955
aF0.7746050589363941
aF-0.9256013868979315
aF0.09926175440755747
aF0.09926273085745381
aF0.2089646727644711
aa(lp52
F-1.0
aF0.6241391563758651
aF-0.8540824031618836
aF0.7159467602533067
aF-0.40383158291786836
aF0.20978106132105795
aF0.6815139657867625
aF-0.8924366068225726
aF0.0848051043221597
aF0.08459000255785522
aF0.18274651307247597
aa(lp53
F-0.8657615860635755
aF0.9920634105301183
aF-0.8965569143471971
aF1.0
aF-0.3688181020680755
aF0.42701494747509094
aF0.7082043411488947
aF-0.6625178927906232
aF0.12834001132527945
aF0.12832095154682283
aF0.1779420242038198
aa(lp54
F-0.8245636746890229
aF0.5401454185812058
aF-0.43660306958845047
aF1.0
aF-0.30897043280753456
aF0.3852377233340632
aF0.4965944508704857
aF-0.4194012382689616
aF0.11030070131349037
aF0.1113416614378771
aF0.17182418961303145
aa(lp55
F-0.6199375768728553
aF0.4748900817257094
aF-0.2597726619145542
aF1.0
aF-0.16678794602077093
aF0.3812410122375191
aF0.6101256540223187
aF-0.37531833514688673
aF0.057552456003477796
aF0.05867869270971683
aF0.1627138481752692
aa(lp56
F-0.9781319907174671
aF0.7653639972641558
aF-0.886995075499569
aF0.8485097103389385
aF-0.4361014649531432
aF0.3024104717469768
aF0.852876001782888
aF-1.0
aF0.08949788454456482
aF0.08949928442315058
aF0.2100759626524626
aa(lp57
F-0.4940885805690462
aF0.7469275305616642
aF-0.7532360735653305
aF0.5171728058699145
aF-0.043375613147430984
aF0.013119683823650866
aF0.9535455270528805
aF-1.0
aF0.08540862743393703
aF0.08533642120539445
aF0.1703876692523554
aa(lp58
F-1.0
aF0.7307883642621167
aF-0.8001821315536302
aF0.9494194838588076
aF-0.3779743936290355
aF0.2873221904363093
aF0.7330147080182176
aF-0.8407791469659094
aF0.08644173045279167
aF0.08665011059672675
aF0.1818673699808637
aa(lp59
F-1.0
aF0.30667078729781355
aF-0.39167497342413593
aF0.8092782172668994
aF-0.4473618956669543
aF0.35402935263229035
aF0.11565371686214185
aF-0.18487193057944276
aF0.04928176142775006
aF0.04934759683216931
aF0.09662311035176717
aa(lp60
F-1.0
aF0.3583118669597106
aF-0.3811026165233792
aF0.937940866940451
aF-0.3904851725809905
aF0.37093493494690727
aF0.1714900794845582
aF-0.18485736801437608
aF0.05241263343908146
aF0.052365460049079646
aF0.10194414533743144
aa(lp61
F-0.8786139183500725
aF0.3434035811477348
aF-0.279846162352133
aF1.0
aF-0.3399860655068762
aF0.4092305993654861
aF0.17537402851358233
aF-0.11453581581667363
aF0.04588622214236192
aF0.04567148942742858
aF0.09080491764444723
aa(lp62
F-0.9081318619596825
aF0.3954179956297391
aF-0.3299384444240865
aF1.0
aF-0.35868501485753423
aF0.4290766704055071
aF0.2084659974379569
aF-0.14040588425408382
aF0.05102330922859143
aF0.050909993816494796
aF0.10101102775682476
aa(lp63
F-1.0
aF0.45861697477255053
aF-0.6258199378872127
aF0.7878440431821933
aF-0.4603703124915658
aF0.30548853792110753
aF0.3605077706717611
aF-0.5265531467895472
aF0.06462290067826452
aF0.0649072517949603
aF0.17972671065853454
aa(lp64
F-1.0
aF0.41482298912689636
aF-0.5774437704177717
aF0.7829057878074052
aF-0.4274010714420445
aF0.275741843861726
aF0.3517187500647413
aF-0.5158817160873639
aF0.062032228785329296
aF0.06233404543106836
aF0.17201410721895802
aa(lp65
F-1.0
aF0.41928973140104575
aF-0.5682869519437693
aF0.7990562009370468
aF-0.4191868891952966
aF0.28152690788184515
aF0.3621523867323907
aF-0.5117009711203143
aF0.0608252229040305
aF0.06112586289352513
aF0.17013104322542713
aa(lp66
F-0.9431944942129649
aF0.669931128432985
aF-0.6235520290299931
aF1.0
aF-0.23576995816888358
aF0.26522392054499555
aF0.9008855129601405
aF-0.8544628758868635
aF0.0835688668923841
aF0.08371062417140537
aF0.2235156780489706
aa(lp67
F-0.987586962709106
aF0.6286038512720475
aF-0.6166930497181988
aF1.0
aF-0.29445661819819186
aF0.29227468055260913
aF0.7895688016962074
aF-0.7824135951170299
aF0.08873641836150331
aF0.08878616124239533
aF0.21251893226930108
aa(lp68
F-0.9173128618252318
aF0.7094897412028965
aF-0.6399609685316082
aF1.0
aF-0.3106962779989208
aF0.35495445540924664
aF0.7848881176053087
aF-0.7222688002228417
aF0.09050379028529307
aF0.09070196693253903
aF0.20340706702363698
aa(lp69
F-1.0
aF0.49780274982709927
aF-0.527301045942565
aF0.9516836587730766
aF-0.19953374310686858
aF0.16818547662582567
aF0.759461277247696
aF-0.7933583498550202
aF0.07401733812622938
aF0.0739686892914856
aF0.1977919096001026
aa(lp70
F-1.0
aF0.47343760804844776
aF-0.5985262350366264
aF0.8308900555913791
aF-0.3635150814983924
aF0.2498672272691687
aF0.5785039690737731
aF-0.7071985334490172
aF0.06617803279074917
aF0.06592976495773994
aF0.15422427411732884
aa(lp71
F-1.0
aF0.6298413411179039
aF-0.7135767370347268
aF0.9021693043479877
aF-0.349246255484171
aF0.27996530152039784
aF0.8264778296974419
aF-0.9111151822640967
aF0.07392265189637783
aF0.07372827007106711
aF0.200675176516931
aa(lp72
F-1.0
aF0.5363359589788761
aF-0.6762749503581444
aF0.8038827659727139
aF-0.3597012065017554
aF0.23636456466841138
aF0.6602401460090719
aF-0.7924946493019013
aF0.06880137252283053
aF0.06855683262144795
aF0.16539611866353315
aa(lp73
F-0.8909779038043807
aF0.6719819556131841
aF-0.6429030948775201
aF0.9716753405374755
aF-0.12045295396304617
aF0.12841640866248802
aF1.0
aF-0.9983149941731064
aF0.07982127618633418
aF0.08018743322319026
aF0.2544379287640538
aa(lp74
F-0.9019668493881262
aF0.6763059481066488
aF-0.622396556132739
aF1.0
aF-0.1929098380219185
aF0.22286585237841197
aF0.9239302941296108
aF-0.883642772833498
aF0.08605207517078343
aF0.08650024893242024
aF0.22809234353275662
aa(lp75
F-0.9415890649298987
aF0.5477675987196925
aF-0.5448776556415496
aF1.0
aF-0.13785894421295186
aF0.15371065805247475
aF0.9447225408448586
aF-0.9246280609007751
aF0.07415644598041246
aF0.07452071280470215
aF0.23081177965525068
aa(lp76
F-0.8292618402260192
aF0.6148217142733247
aF-0.697992159994551
aF0.6807189086812501
aF-0.20359274034573144
aF0.12327050695581021
aF0.9437835755140876
aF-1.0
aF0.0745540356128314
aF0.0746746575594883
aF0.22466233749640582
aa(lp77
F-0.9995527014930908
aF0.6446430084534737
aF-0.7814067182504877
aF0.8002895603009186
aF-0.2824772494748015
aF0.165876023475121
aF0.8740850764546501
aF-1.0
aF0.08526546747568213
aF0.08520863754210281
aF0.22893391838909735
aa(lp78
F-0.9592259375501521
aF0.5884436311254526
aF-0.6978653579656753
aF0.7455296640536577
aF-0.2499410667429932
aF0.1454392223938771
aF0.9263233841276317
aF-1.0
aF0.07694589735374792
aF0.07674808970997589
aF0.22870853795334278
aa(lp79
F-0.8254998048127814
aF0.7676749513900702
aF-0.9402646826383916
aF0.6540211388810352
aF-0.31044223565045387
aF0.19058136934579298
aF0.8531848302763272
aF-1.0
aF0.09274767951061036
aF0.09194179736011031
aF0.2212860733724568
aa(lp80
F-0.9638296664428583
aF0.6072332435998856
aF-0.5728464764656066
aF1.0
aF-0.4150552266954816
aF0.4266405275652893
aF0.57939540162077
aF-0.5482670100013213
aF0.0812685654606765
aF0.08141474000028064
aF0.16535449550703268
aa(lp81
F-1.0
aF0.616180163384354
aF-0.6857205720459484
aF0.8879374013287142
aF-0.3806174528134582
aF0.30194985592574786
aF0.6744430737152994
aF-0.7400152567594044
aF0.07934275312726732
aF0.07932697687438385
aF0.17639593385473284
aa(lp82
F-0.9433127403601274
aF0.7140756448710341
aF-0.6433024242174659
aF1.0
aF-0.3429653302610122
aF0.38100319214052275
aF0.7540508930905536
aF-0.6758656866824566
aF0.07994814739414068
aF0.08008189039581634
aF0.17527039539267222
aa(lp83
F-0.996875869960384
aF0.7118738917526067
aF-0.7185316559307807
aF1.0
aF-0.4003750002755491
aF0.38635682792595244
aF0.621000601326614
aF-0.6377300643958358
aF0.10619398872326723
aF0.10662647328500853
aF0.1874011093259447
aa(lp84
F-1.0
aF0.7918508391561165
aF-0.931587075966024
aF0.86777429161403
aF-0.3814323455219466
aF0.25364962904525856
aF0.7912911138467874
aF-0.9487762915944667
aF0.10679749293783672
aF0.1067178892521241
aF0.2295783803849113
aa(lp85
F-1.0
aF0.4667858529417669
aF-0.717365644203882
aF0.708766719544959
aF-0.4226608121618492
aF0.1899188550930136
aF0.40052057027205556
aF-0.6514621605857804
aF0.08968946876108069
aF0.08907839715764816
aF0.15601183732597332
aa(lp86
F-0.9488680709118883
aF0.3749213149246915
aF-0.3508269373182414
aF1.0
aF-0.28309751387252663
aF0.3048504377329941
aF0.32659525484988244
aF-0.3020730301358234
aF0.046760272360406405
aF0.046785006655797455
aF0.09482535951702137
aa(lp87
F-0.9595314245595524
aF0.38272546726735557
aF-0.38620944513161076
aF1.0
aF-0.2820537916045927
aF0.3018341626525864
aF0.2813173165949195
aF-0.2737839478399761
aF0.0477022287765147
aF0.0474739099581854
aF0.09018848743476876
aa(lp88
F-0.8543213207692187
aF0.6925599305401235
aF-0.6152894204719012
aF1.0
aF-0.3001998003397849
aF0.36165635824579406
aF0.8188222720147714
aF-0.7521293661666757
aF0.09520534074026835
aF0.09641181729317884
aF0.19215040391196953
aa(lp89
F-1.0
aF0.7735000728910212
aF-0.8762065347759508
aF0.8970240573980112
aF-0.4483314342269759
aF0.33827986102084406
aF0.7107957674236247
aF-0.8260267972057133
aF0.10483686670431397
aF0.10470749814020394
aF0.2105783358788166
aa(lp90
F-0.960987999885364
aF0.6173702080228385
aF-0.6116793355994753
aF1.0
aF-0.24408752531541308
aF0.22703536332976243
aF0.7133266321786322
aF-0.7371399854943321
aF0.09101637493068812
aF0.0914033264569385
aF0.20728377224415215
aa(lp91
F-1.0
aF0.7382155246673094
aF-0.7971317487766746
aF0.9694756201275895
aF-0.31743285727389065
aF0.24176636432669643
aF0.8007327154735167
aF-0.9007230748705173
aF0.10396987850571594
aF0.10414049960901667
aF0.23826583594261636
aa(lp92
F-1.0
aF0.38654221487372553
aF-0.4440786396886628
aF0.8668396690715121
aF-0.23546268186471708
aF0.18535828258105871
aF0.33757469678269597
aF-0.38272492325540775
aF0.05897666746051782
aF0.058921357934321614
aF0.08856580551023673
aa(lp93
F-1.0
aF0.37213932767284347
aF-0.4381606831520397
aF0.8580443000841721
aF-0.22750221740229024
aF0.17274879495817158
aF0.3414233741936679
aF-0.3956213410005881
aF0.05782621663629095
aF0.05776168420844168
aF0.08912363462796581
aa(lp94
F-1.0
aF0.4551580764073746
aF-0.5453101073185065
aF0.8338072072407542
aF-0.27849881786813935
aF0.20325787335172324
aF0.43021960330934417
aF-0.5027046899016642
aF0.06494141827822832
aF0.06471285566905847
aF0.11073285094321178
aa(lp95
F-0.9152291080129676
aF0.582619307315173
aF-0.5232251428392497
aF1.0
aF-0.2707026040736968
aF0.31682134350667146
aF0.5650330222468928
aF-0.5077811236372838
aF0.06796976874085911
aF0.06800337577858526
aF0.12800108463321358
aa(lp96
F-1.0
aF0.3634439086115022
aF-0.4632353148013271
aF0.8125503332891332
aF-0.5371750800079104
aF0.434092940721748
aF0.04709791638572459
aF-0.12048038419092386
aF0.0543932593058561
aF0.05450826858622258
aF0.0936273688171229
aa(lp97
F-1.0
aF0.40977132586169
aF-0.4731586596368576
aF0.8778225802813663
aF-0.5399291078739831
aF0.47532669286099327
aF0.11151925168599099
aF-0.15559069826504296
aF0.056706188650926276
aF0.056724725125711035
aF0.10530405399579332
aa(lp98
F-1.0
aF0.39146366526728565
aF-0.4584206560588377
aF0.8669627921943864
aF-0.5154251959683547
aF0.4427627967192863
aF0.10447390151558221
aF-0.15467966844996894
aF0.054801341256198614
aF0.054819522449122075
aF0.10105751680655459
aa(lp99
F-0.8513913759220639
aF0.8664668927046184
aF-0.7419668303691305
aF1.0
aF-0.32193766004021074
aF0.4018825242769232
aF0.8738764332573736
aF-0.7742431149867206
aF0.0912550083116864
aF0.09151679412450082
aF0.19661458450869626
aa(lp100
F-0.951724944098013
aF0.3233136396900585
aF-0.2969378781705238
aF1.0
aF-0.3664494851333513
aF0.3901323407139311
aF0.04485659334887352
aF-0.022045871642040634
aF0.05001738560744897
aF0.04984161863164729
aF0.06922751958803522
aa(lp101
F-0.8477649295400548
aF0.8747044747866607
aF-0.7443109984129299
aF1.0
aF-0.3365225136858376
aF0.42505859843786187
aF0.8839181513628019
aF-0.7742507262191994
aF0.09150102662594614
aF0.09176343523514702
aF0.2021573188014249
aa(lp102
F-1.0
aF0.4662535732970459
aF-0.6386255728185202
aF0.7797215969654411
aF-0.37055422076291594
aF0.21508086408549937
aF0.52623414722356
aF-0.7118569402515785
aF0.06094434657974521
aF0.06092184474507095
aF0.13692296776642732
aa(lp103
F-1.0
aF0.43765603611752196
aF-0.5983306049420718
aF0.7740873261434059
aF-0.3261547487534746
aF0.18479398206871125
aF0.49208600889391874
aF-0.6584662721466091
aF0.05656077410385621
aF0.05652994701176527
aF0.1234602957854868
aa(lp104
F-1.0
aF0.4672939264084281
aF-0.6087297502028163
aF0.8125799023699015
aF-0.35298412262105716
aF0.22916292748786135
aF0.5274452366900105
aF-0.674601138115292
aF0.06030646682163106
aF0.060260761484128386
aF0.13053443823090508
aa(lp105
F-1.0
aF0.6533586354213291
aF-0.7355866271789802
aF0.9644517961484258
aF-0.37560547956002294
aF0.32098234758566774
aF0.7767598642395229
aF-0.8657659711128127
aF0.09085228607382448
aF0.0910435555341367
aF0.1977043843273396
aa(lp106
F-1.0
aF0.7056830332653801
aF-0.7711536871741178
aF0.9693403921984391
aF-0.36254302455323534
aF0.30116091874570383
aF0.765766076682808
aF-0.851001422774213
aF0.09559723269824444
aF0.09568060371602935
aF0.19723926007020243
aa(lp107
F-1.0
aF0.5737633966526748
aF-0.7100236393371842
aF0.8847943416223335
aF-0.3728152768671545
aF0.2716667493192746
aF0.6916143900846081
aF-0.8301940654592069
aF0.08652204036880602
aF0.08648068873221085
aF0.1812830940872543
aa(lp108
F-1.0
aF0.9004062806668265
aF-0.8966538081583314
aF0.9202910491469234
aF-0.5056871862520067
aF0.43490630909918376
aF0.6695180004267663
aF-0.6649011614806503
aF0.11300386694362491
aF0.11355353798025951
aF0.179163546236215
aa(lp109
F-1.0
aF0.8775281112411967
aF-0.9111556153333431
aF0.8646453549466352
aF-0.5038190945708627
aF0.39782509985502196
aF0.7113387737812412
aF-0.728233419308821
aF0.10999274044814246
aF0.11027226037294996
aF0.18545328014146145
aa(lp110
F-0.8732725642326259
aF0.9198818916029021
aF-1.0
aF0.7328911821819601
aF-0.5090355432554743
aF0.3745284724391391
aF0.564447525261913
aF-0.6441366280715191
aF0.10959768376905235
aF0.10923392009663882
aF0.173472601184943
aa(lp111
F-0.8260997458912048
aF0.8027867713301718
aF-0.6748881728262247
aF1.0
aF-0.37160112505574744
aF0.4534044660127227
aF0.7779341380392133
aF-0.6906039071311451
aF0.0779984954045489
aF0.07804887869615236
aF0.1703645502839814
aa(lp112
F-1.0
aF0.7643115318229008
aF-0.7936255611434162
aF0.9705528733664731
aF-0.5178871264765182
aF0.4836163612543698
aF0.8019567766797447
aF-0.838363729782761
aF0.08286260481184739
aF0.08243309568563263
aF0.1892154966057578
aa(lp113
F-1.0
aF0.38612230505177825
aF-0.43951092278103704
aF0.8855220361591506
aF-0.5100441725022065
aF0.4478247092716586
aF0.08436871063335166
aF-0.1250845188448265
aF0.05224697459641753
aF0.0523927808854656
aF0.08880694820660841
aa(lp114
F-1.0
aF0.3900866599637465
aF-0.41173790232962276
aF0.9365797955309278
aF-0.46636003051642877
aF0.43347818786599474
aF0.1254210126483451
aF-0.14287423690315634
aF0.05324883611709856
aF0.053326343315458206
aF0.0923289244968714
aa(lp115
F-1.0
aF0.40163121553708153
aF-0.42944675665073295
aF0.9269661231199258
aF-0.5024960415257119
aF0.46711809658684045
aF0.09245668009920754
aF-0.11189907974812524
aF0.05405966491147562
aF0.054130975132562625
aF0.0918530411652908
aa(lp116
F-1.0
aF0.747422697198124
aF-0.912161978287222
aF0.8155353376284046
aF-0.45951761135560243
aF0.3245718216403923
aF0.6451549485583926
aF-0.7875166267639292
aF0.10293890452453727
aF0.10267445848574587
aF0.1976756916539501
aa(lp117
F-1.0
aF0.7488095187652261
aF-0.9138104530553148
aF0.8141966546796084
aF-0.4725170019990766
aF0.3384093981582559
aF0.6234696191352802
aF-0.7628960866857294
aF0.10471673561994257
aF0.10440153086210138
aF0.19657994694223824
aa(lp118
F-1.0
aF0.7345332509269981
aF-0.9004439021474772
aF0.8130901497451509
aF-0.4831879886787285
aF0.3425903152263979
aF0.6280233765395637
aF-0.7735096918586883
aF0.10297479410829806
aF0.10271587410444175
aF0.1960236762212963
aa(lp119
F-1.0
aF0.6818060100437957
aF-0.8890015173845582
aF0.7844933835847445
aF-0.5521299581749868
aF0.3666370339257437
aF0.572561611249988
aF-0.7716605220131737
aF0.10264259388219328
aF0.10221908965614532
aF0.1943977827216625
aa(lp120
F-0.807000938483517
aF1.0
aF-0.8932148981029835
aF0.9368626486706562
aF-0.40518180665803744
aF0.4713545727282879
aF0.7014528157685551
aF-0.6312488069308885
aF0.11913666951830135
aF0.11919671787922705
aF0.17278411465137136
aa(lp121
F-0.7333195215938677
aF0.5425912019310282
aF-0.36663138089835706
aF1.0
aF-0.22697943508785492
aF0.38088913062912094
aF0.5825055721778896
aF-0.4077762554104808
aF0.07189747245257486
aF0.07251610408981275
aF0.16057745895561082
aa(lp122
F-0.8536758332812007
aF0.3787708929353028
aF-0.3111385811887729
aF1.0
aF-0.2500410213918182
aF0.31346623731383233
aF0.3379519162265734
aF-0.27171937839942945
aF0.04334910222540873
aF0.043468424334457814
aF0.08727203487350843
aa(lp123
F-0.909669371568172
aF0.6516000837458391
aF-0.647173166800609
aF1.0
aF-0.36916314676579753
aF0.38748540625691286
aF0.5626201559707621
aF-0.582897641182883
aF0.09147568142537574
aF0.09203758348848497
aF0.1554076230790238
aa(lp124
F-0.8424359365755313
aF0.41839100365923254
aF-0.3332396999165568
aF1.0
aF-0.2695928370193113
aF0.34492768845951266
aF0.3297537747258826
aF-0.2487628488211032
aF0.04629735781215808
aF0.04620810931763441
aF0.08852998570899197
aa(lp125
F-1.0
aF0.3480308070667455
aF-0.4112419019213468
aF0.8705169151307263
aF-0.4268817005267566
aF0.35347935983361145
aF0.07152032643279219
aF-0.12666238521543233
aF0.055480684444865556
aF0.05552172021831055
aF0.08825288446837033
aa(lp126
F-1.0
aF0.4159520846485331
aF-0.41802640174602534
aF0.9575062893288857
aF-0.3493537335482894
aF0.33496525967147717
aF0.19235605535517075
aF-0.19538196774766095
aF0.05048004881360112
aF0.05053906961562738
aF0.08546631579150865
aa(lp127
F-1.0
aF0.36541477849185616
aF-0.41813050363492793
aF0.8661364667588813
aF-0.33863261849677223
aF0.2849594327985375
aF0.19345706878121177
aF-0.23374726577488394
aF0.04801248542494261
aF0.04796099274837592
aF0.08457260105956926
aa(lp128
F-1.0
aF0.4468473754496768
aF-0.4636074153088895
aF0.9451808712083881
aF-0.2331313288009105
aF0.2220650732972533
aF0.44065016819094593
aF-0.44623581169789367
aF0.06369444408589849
aF0.06364036169997861
aF0.1042868220049388
aa(lp129
F-1.0
aF0.4655031402206984
aF-0.4866858116015614
aF0.9402125151584361
aF-0.28193876737617857
aF0.2662508024051996
aF0.44268065401443135
aF-0.45311417603964677
aF0.06639937376870202
aF0.06635396769930603
aF0.1072653975965175
aa(lp130
F-1.0
aF0.5984567657085932
aF-0.6751409441720493
aF0.8896098029652879
aF-0.35441429943298425
aF0.27501930717807743
aF0.6469189151500777
aF-0.7241876644826444
aF0.07767072738612646
aF0.07764559482413932
aF0.16413266370822618
aa(lp131
F-1.0
aF0.5849072537309319
aF-0.6684383579625701
aF0.9438696703297037
aF-0.35008295209484014
aF0.2994469748251024
aF0.7634067526451828
aF-0.8416673546903555
aF0.08527216996995991
aF0.08611428290940781
aF0.18964415111425234
aa(lp132
F-1.0
aF0.4606585416082642
aF-0.5918185852723247
aF0.8046838522467842
aF-0.3478793893233956
aF0.2395702209919634
aF0.569717515547666
aF-0.6785399207153039
aF0.07639644891730886
aF0.07654301735998512
aF0.15600422598693894
aa(lp133
F-1.0
aF0.6045033833528481
aF-0.690903788669558
aF0.8756313429088912
aF-0.3560113359855036
aF0.26961486511074817
aF0.6912908749667337
aF-0.7777014191034038
aF0.07765119047033583
aF0.07761925282354856
aF0.16681549020395545
aa(lp134
F-1.0
aF0.563944424701311
aF-0.6484793170461043
aF0.8999664271528414
aF-0.41751508203435445
aF0.37198270178322124
aF0.6268015890773623
aF-0.6842003595823718
aF0.08416487916558421
aF0.08465365692787317
aF0.16049580050395987
aa(lp135
F-0.920202087323846
aF0.5887329547637761
aF-0.5751356362423055
aF1.0
aF-0.3733859105286055
aF0.42461007751898683
aF0.5734548327268559
aF-0.5648169436628254
aF0.08374420020837288
aF0.0850135781880687
aF0.14568522630714045
aa(lp136
F-0.960292285149924
aF0.5705513347472994
aF-0.6072271860125117
aF1.0
aF-0.3936055283058861
aF0.4039102831215876
aF0.576928955141486
aF-0.6219540422161348
aF0.08677064836502857
aF0.08792225764755643
aF0.15469944632484414
aa(lp137
F-0.8848594716390533
aF0.8304924864441147
aF-0.73737601189187
aF1.0
aF-0.36849475753634536
aF0.4242427576818653
aF0.8792445429725474
aF-0.8059902901027197
aF0.09020417450498028
aF0.09041238267187583
aF0.20466739186871521
aa(lp138
F-0.8416662899992476
aF0.7840121049995686
aF-0.6481804734486594
aF1.0
aF-0.39920477949621985
aF0.5061689587111317
aF0.711709458452205
aF-0.5882097492976488
aF0.09056417573860209
aF0.09089049661565347
aF0.1836071246997319
aa(lp139
F-0.8146710879863874
aF0.8161841029596713
aF-0.6673910579299315
aF1.0
aF-0.34292164342725123
aF0.4488505557020118
aF0.8682269003862718
aF-0.7437805269107988
aF0.08788090038110562
aF0.08838878986278538
aF0.19583320249962655
aa(lp140
F-1.0
aF0.7322425267447256
aF-0.7756922384976758
aF0.9589539548406225
aF-0.49750251599285666
aF0.44800722927956943
aF0.7171655476664807
aF-0.7675463524959155
aF0.09402997379464008
aF0.09398244010721803
aF0.20063561249088382
aa(lp141
F-1.0
aF0.5571023654629204
aF-0.6591628914607163
aF0.8607659989723884
aF-0.36413978569800953
aF0.27653052367706193
aF0.5987494826258184
aF-0.6929756485428284
aF0.06597760061904288
aF0.06590347843177387
aF0.1395072334294574
aa(lp142
F-1.0
aF0.5190591672471054
aF-0.6356640570308822
aF0.832928347168877
aF-0.35048791771651067
aF0.24823723151798271
aF0.5760771643612076
aF-0.6853720740387107
aF0.06378030135230398
aF0.06369177615175171
aF0.13600503551152957
aa(lp143
F-1.0
aF0.5472024607333187
aF-0.5629234306989548
aF0.9889614491990396
aF-0.33487466206506006
aF0.3256942520129229
aF0.6478686413412947
aF-0.6565140861699887
aF0.0810299663482678
aF0.08138120847998973
aF0.15570872406887867
aa(lp144
F-1.0
aF0.6757585560147488
aF-0.6750924679448888
aF0.993544468981601
aF-0.34703361765655893
aF0.3221307174291519
aF0.631324034930434
aF-0.6424187095610198
aF0.09187678188898692
aF0.09163644194725096
aF0.17049427171265868
aa(lp145
F-1.0
aF0.6466132559118583
aF-0.6690998618474921
aF0.9601248748386612
aF-0.3591253720126148
aF0.3338364687833495
aF0.6833465928056807
aF-0.6990621386193638
aF0.07770925898280005
aF0.07772188799491797
aF0.1629626444983792
aa(lp146
F-0.8777232397421784
aF0.6566456260278399
aF-0.5421913215515741
aF1.0
aF-0.2234118842242982
aF0.3073359959097769
aF0.6043174061906054
aF-0.49182316277110666
aF0.07793124437163917
aF0.0784940374136805
aF0.1293203027692853
aa(lp147
F-1.0
aF0.6398659584814709
aF-0.6200682940096941
aF0.9752333609319955
aF-0.3045173881406571
aF0.3099338347927512
aF0.6189933138828835
aF-0.5849826751074488
aF0.08024287311906171
aF0.08055575374724444
aF0.13936052882114952
aa(lp148
F-0.9054879022776283
aF0.6190937534809582
aF-0.5112923936553511
aF1.0
aF-0.21519747778794873
aF0.2963787318539964
aF0.5760337814449544
aF-0.4579223549988011
aF0.07367772020756694
aF0.07401879178883251
aF0.121546625774116
aa(lp149
F-1.0
aF0.43732019064531197
aF-0.4597857979826156
aF0.9496866361392113
aF-0.5161199439333446
aF0.4852111175385986
aF0.1509088892685596
aF-0.16872413353697902
aF0.05512171360232969
aF0.05512528763472169
aF0.10219306712085376
aa(lp150
F-1.0
aF0.3959339542101231
aF-0.4353077053803388
aF0.9166305671236384
aF-0.5034647481190047
aF0.45267133916571317
aF0.10733101332628493
aF-0.1396993422917573
aF0.052518949046102964
aF0.05246544802890352
aF0.09427450537527224
aa(lp151
F-1.0
aF0.38887696140296835
aF-0.4602186162403007
aF0.8641352019351471
aF-0.49936067927179956
aF0.42377480651304644
aF0.12256277726699684
aF-0.17695756920002761
aF0.052334335083190145
aF0.05237280022566873
aF0.09681458276157427
aa(lp152
F-0.7337508454961921
aF0.4441989462187047
aF-0.2957312637713389
aF1.0
aF-0.39262089933133687
aF0.5492147325345814
aF0.12279279445221304
aF-0.004361176745002884
aF0.045293962276874614
aF0.044757808285208846
aF0.0783993556698447
aa(lp153
F-0.780133914342817
aF0.4699269403769451
aF-0.34205671464842613
aF1.0
aF-0.42258842689645276
aF0.5490251274809906
aF0.1845233390662949
aF-0.0839639925726631
aF0.048984673381472554
aF0.048627783683026136
aF0.09268867705722783
aa(lp154
F-1.0
aF0.4159092250406352
aF-0.42455956239464493
aF0.9628019197331947
aF-0.5183916757038659
aF0.49494147400540517
aF0.10955676669119557
aF-0.11741109348771099
aF0.05279548090174037
aF0.05274768897471576
aF0.09340973194780802
aa(lp155
F-1.0
aF0.5762714485133328
aF-0.8860968469545383
aF0.6650275297999063
aF-0.5400936838733524
aF0.26874632410472254
aF0.47997623895870356
aF-0.7725456924219422
aF0.09438444544037679
aF0.09383549808430604
aF0.17695019591459463
aa(lp156
F-1.0
aF0.6013170235500686
aF-0.8878801961776355
aF0.6826371185405273
aF-0.5137817956222174
aF0.27024977489420704
aF0.5530596606659528
aF-0.8191414722819145
aF0.09204903917634326
aF0.09156086351796573
aF0.1834948099614102
aa(lp157
F-0.9975540797085447
aF0.3035024614998219
aF-0.32296491382296344
aF1.0
aF-0.4371039282004544
aF0.4024413175968767
aF0.015982348888285938
aF-0.04709642749732221
aF0.07432382662416732
aF0.07462812084444365
aF0.09328033196462726
aa(lp158
F-0.9733860798123143
aF0.7745491070374984
aF-0.8188078665779596
aF1.0
aF-0.4009745028788734
aF0.3753497052287363
aF0.717534498138247
aF-0.7813051375153278
aF0.10606386168457263
aF0.10638459011816008
aF0.17928474688927873
aa(lp159
F-0.8615619782931471
aF0.7844165649151418
aF-0.6965211574677789
aF1.0
aF-0.37530984211217494
aF0.4234075743548061
aF0.7183960735858315
aF-0.671086870420423
aF0.08641885776315768
aF0.08686118680622598
aF0.17542594180528967
aa(lp160
F-0.8514510801441348
aF0.7633202502655146
aF-0.6517112690962779
aF1.0
aF-0.4364438786027082
aF0.5087247686633866
aF0.7486154958051281
aF-0.6618603297028139
aF0.09103157401712493
aF0.0914564757138308
aF0.19015955723164896
aa(lp161
F-0.936037126707106
aF0.9063859879559842
aF-0.8656967808955022
aF1.0
aF-0.48744056004382014
aF0.49472263112962117
aF0.9666796727699652
aF-0.9490060845727869
aF0.10414190738305154
aF0.10430732334360596
aF0.2421955006966338
aa(lp162
F-0.9376300274691886
aF0.37784479905474777
aF-0.3419899534670994
aF1.0
aF-0.4696559998042362
aF0.518639057332293
aF0.09736757399472587
aF-0.059499339734252
aF0.04978492813101339
aF0.04938284494944569
aF0.08625669173970392
aa(lp163
F-0.8917825345904117
aF0.3772906454846586
aF-0.32160977247551503
aF1.0
aF-0.4268130736341635
aF0.5025082625283072
aF0.11773017382108325
aF-0.06203050970233551
aF0.047781863290649026
aF0.04739554993711119
aF0.08304172749801614
aa(lp164
F-0.6362282121245458
aF0.8008954678284028
aF-0.6013405449143159
aF0.8985720560037495
aF-0.1375398615115984
aF0.42412968782727245
aF1.0
aF-0.7364463118539042
aF0.10261083239308051
aF0.10296828760530786
aF0.17983159928714357
aa(lp165
F-0.4901716483337641
aF0.5654623887364023
aF-0.5735501828977101
aF0.47164598656124884
aF0.14802148549464075
aF-0.14712109463640316
aF1.0
aF-0.9847273935846468
aF0.07747930261647383
aF0.07755552473106207
aF0.1382009232181002
aa(lp166
F-0.9108640696394247
aF0.8270218189185186
aF-1.0
aF0.8372639520617776
aF-0.45196552059024525
aF0.37916932812787635
aF0.7711227405036405
aF-0.9223409398990937
aF0.10076761592827647
aF0.10092257554474113
aF0.20182805857617694
aa(lp167
F-1.0
aF0.4549250754784008
aF-0.5304462194155221
aF0.8962573707363433
aF-0.3069174576132891
aF0.23278809095498115
aF0.4458120209955476
aF-0.5278584465939773
aF0.06163731029569971
aF0.06157867326034655
aF0.11448250944134535
aa(lp168
F-1.0
aF0.14046722008957874
aF-0.2660915482443298
aF0.5854623246317191
aF-0.24821038096777992
aF0.13882334906037844
aF0.13082902653269807
aF-0.23916938049154296
aF0.02548737586387476
aF0.025638525663358603
aF0.05689876882970502
aa(lp169
F-1.0
aF0.17223063734627866
aF-0.2906541278515279
aF0.6534214424074386
aF-0.38069542421482505
aF0.24616610639701175
aF0.011531436970653673
aF-0.10972000556437922
aF0.03133640620171893
aF0.03163727143025787
aF0.05347105650823528
aa(lp170
F-1.0
aF0.16917490360764814
aF-0.2892645380990529
aF0.6456500700022657
aF-0.3466461458780164
aF0.22092185054389665
aF2.4204468706877097e-05
aF-0.09644467900101199
aF0.03176944085651663
aF0.032065669882520825
aF0.050156693635142975
aa(lp171
F-0.8476877896657812
aF1.0
aF-0.9409890040283913
aF0.8273582188276317
aF-0.5552122657481449
aF0.4954402241233302
aF0.6682088726420387
aF-0.6556851942222087
aF0.11059240102119415
aF0.11041675084671633
aF0.21354731916984254
aa(lp172
F-0.9009386722644271
aF0.2817197538264474
aF-0.2394925147064155
aF1.0
aF-0.35281831732057545
aF0.39945862925846104
aF0.06674869979374398
aF-0.027591893898350813
aF0.03534268179179964
aF0.034995839724996015
aF0.060377198746625484
aa(lp173
F-1.0
aF0.2562583162243244
aF-0.2650452078623931
aF0.9457788374566793
aF-0.38153819668344013
aF0.36704301222693386
aF0.06538098279782427
aF-0.06957246142014609
aF0.03561018886631068
aF0.035420552386793674
aF0.06197126197399412
aa(lp174
F-0.970511455173505
aF0.3178092279203589
aF-0.2951610644098418
aF1.0
aF-0.40922698611825764
aF0.43297995749366863
aF0.10775787465026979
aF-0.08240512664470094
aF0.040500289464260576
aF0.04012294756195046
aF0.07529110171523547
aa(lp175
F-1.0
aF0.40485049325002526
aF-0.49912952739207594
aF0.8456265628387359
aF-0.27701214051399287
aF0.16876557924630317
aF0.5802581200227104
aF-0.7008483927151766
aF0.06550689170585534
aF0.0652762754413401
aF0.14952088571321162
aa(lp176
F-1.0
aF0.723042550065573
aF-0.7924524274288188
aF0.9502895923511421
aF-0.32765003419269045
aF0.24273746417134048
aF0.8532562275033523
aF-0.9625329538698588
aF0.08748615420772662
aF0.08773352633623173
aF0.21394262120913973
aa(lp177
F-0.9309461925728525
aF0.7373525715244513
aF-0.7355120052816814
aF1.0
aF-0.3246857446380975
aF0.29591485221129005
aF0.7437275516541888
aF-0.8004300801172877
aF0.10447118213567252
aF0.10433947782392114
aF0.17440935674224506
aa(lp178
F-0.40790299187486734
aF0.608162877352693
aF-0.6101416554441579
aF0.42790286930288923
aF0.054356101932076455
aF-0.06875811523680489
aF0.9734307012717499
aF-1.0
aF0.06607245156293333
aF0.06611574172789823
aF0.1454935643737532
aa(lp179
F-0.38822679332700466
aF0.6154515218673596
aF-0.5696436141152782
aF0.46095283987309565
aF0.1011113337296027
aF-0.08716524909133037
aF1.0
aF-0.9833817617438007
aF0.06671561025154052
aF0.06712022079791735
aF0.15002657404565953
aa(lp180
F-1.0
aF0.41118072091397884
aF-0.6855145934678244
aF0.6359611415266359
aF-0.42798967070597754
aF0.17920419695087023
aF0.30849113450110394
aF-0.5579547767149534
aF0.07298911694870258
aF0.07291278949003077
aF0.11771235007812748
aa(lp181
F-0.9283985316709867
aF0.8863533414101259
aF-1.0
aF0.798697138534466
aF-0.44747544603654965
aF0.3723401181344837
aF0.8678681731787279
aF-0.9427286355273684
aF0.09733079811127582
aF0.09694651006272878
aF0.22666086974168953
aa(lp182
F-1.0
aF0.8509665083313955
aF-0.9978458071457442
aF0.8232917908436136
aF-0.525469001905482
aF0.4349632501273883
aF0.7801968212887594
aF-0.8614529676071205
aF0.10441847614088703
aF0.10349634574698006
aF0.23160397451500492
aa(lp183
F-0.9189815380399473
aF0.7599831247839078
aF-0.9981831728148923
aF0.6752593253889833
aF-0.4550951141909374
aF0.27727899874225775
aF0.7882677443876361
aF-1.0
aF0.09040474032501791
aF0.08983211950754667
aF0.22228810629233153
aa(lp184
F-1.0
aF0.2770964516361724
aF-0.374572337536443
aF0.6935459370129269
aF-0.3191542492217282
aF0.21670734205219563
aF0.09200107621476533
aF-0.16634203331984074
aF0.039532484981321406
aF0.039698482472608404
aF0.06147203918097053
aa(lp185
F-1.0
aF0.27190558777868623
aF-0.3749188518232704
aF0.7223225013569832
aF-0.32877957681135295
aF0.23509351105650486
aF0.09203010270185688
aF-0.16704316031512909
aF0.041112960976142705
aF0.04120594137352994
aF0.06461849922256396
aa(lp186
F-1.0
aF0.4105721140263929
aF-0.4097931847827451
aF0.8953400663536338
aF-0.35547690307812385
aF0.3312011057454809
aF0.21752961258331938
aF-0.20998486782082504
aF0.04837605433914595
aF0.04845144474677512
aF0.08702209807138912
aa(lp187
F-0.95143151278543
aF0.3895398374891362
aF-0.3456030149867868
aF1.0
aF-0.2866660352062506
aF0.3123152468954794
aF0.3184446630361937
aF-0.2762943578620062
aF0.04515056152303593
aF0.04522496210995592
aF0.08667994368615532
aa(lp188
F-0.9083260278724221
aF0.6434645403882099
aF-0.6093842789810308
aF1.0
aF-0.31561161050467046
aF0.32029255812702007
aF0.6123840722129341
aF-0.6164472342497692
aF0.07617743306482061
aF0.07660194074367614
aF0.14856826272032883
aa(lp189
F-1.0
aF0.3111118196329608
aF-0.35739242175157854
aF0.8734563957281145
aF-0.3395754941371212
aF0.28860353821364576
aF0.131414230431988
aF-0.1691471462638994
aF0.04696202444120618
aF0.0469408782846824
aF0.0741126770431417
aa(lp190
F-1.0
aF0.3981833392512935
aF-0.3967385207316922
aF0.9767751226228639
aF-0.4758925476713835
aF0.46464415608990023
aF0.08437035212577865
aF-0.08319130995922817
aF0.05496439571126729
aF0.054849634325386976
aF0.08930462673512063
aa(lp191
F-1.0
aF0.4087347043270487
aF-0.428072875543213
aF0.9607062234992283
aF-0.49359187100155
aF0.45874283099408486
aF0.10924688349609087
aF-0.13102118800660195
aF0.05672183578001545
aF0.056786100173587574
aF0.10055757590920686
aa(lp192
F-0.5029804730816375
aF0.5588576252589844
aF-0.24442226524350313
aF1.0
aF-0.07035656038105169
aF0.4139488848133441
aF0.6306717476447187
aF-0.3194932776759755
aF0.07747598313396803
aF0.07965838935512688
aF0.1082971816929877
aa(lp193
F-1.0
aF0.47374048274978425
aF-0.5007743243207283
aF0.9221235532846594
aF-0.4187838442220847
aF0.3965454509454047
aF0.3025239875873806
aF-0.3120169086777347
aF0.07822278682735316
aF0.07810275875496626
aF0.1141476717753097
aa(lp194
F-0.959399737798268
aF0.5959828968539422
aF-0.5617105754573133
aF1.0
aF-0.27639262867232217
aF0.3767991988662986
aF0.8411963666721466
aF-0.7323497703307109
aF0.08152921392144798
aF0.08204198657669204
aF0.15937052571706234
aa(lp195
F-1.0
aF0.4737898335980229
aF-0.6211338626605472
aF0.8159176839017219
aF-0.35482953836414044
aF0.21951527253161526
aF0.48928388915758947
aF-0.6472750476213686
aF0.06436426663444507
aF0.06425586650571509
aF0.1280222552069799
aa(lp196
F-0.7055601141278328
aF1.0
aF-0.8951861574802473
aF0.7698872550629048
aF-0.4763222997531666
aF0.48150651449235166
aF0.8487803443282786
aF-0.7969009235970287
aF0.09838039815649179
aF0.09861033852506931
aF0.23266363027003406
aa(lp197
F-0.9945716330145222
aF0.7494050620764939
aF-0.7683313516562335
aF1.0
aF-0.5465476684315799
aF0.5085431327269329
aF0.6122326731203916
aF-0.6528309165043982
aF0.09733612308302875
aF0.09740559806445069
aF0.202227083078454
aa(lp198
F-1.0
aF0.5302236850990514
aF-0.6499259702419101
aF0.8408444591400268
aF-0.3019833350619186
aF0.2045770401355949
aF0.6032717631582016
aF-0.7201602977479651
aF0.06353046838080191
aF0.06352613443308551
aF0.1335513966957478
aa(lp199
F-1.0
aF0.5452840531032912
aF-0.6704873043625238
aF0.833876659786142
aF-0.31912501470178667
aF0.21813778713337703
aF0.6071140023890822
aF-0.7242111221992569
aF0.06566456307304877
aF0.06556598758136824
aF0.1381830459078872
aa(lp200
F-1.0
aF0.677269370439597
aF-0.9566371219482563
aF0.6263375649728392
aF-0.654033395885176
aF0.3405006586017717
aF0.4454554322916187
aF-0.6766387867674095
aF0.07923759851512026
aF0.0788287384333199
aF0.15369230529863198
aa(lp201
F-1.0
aF0.5590959748758377
aF-0.7298651747025143
aF0.7768052934050231
aF-0.37920479867223617
aF0.23255831629621782
aF0.6149198022343484
aF-0.7780998692797526
aF0.06477448146126381
aF0.0647139603743836
aF0.14643317995849386
aa(lp202
F-1.0
aF0.4909049377099396
aF-0.6441511942446022
aF0.7780640603258759
aF-0.3351597013665969
aF0.19806569757207604
aF0.6073326136830048
aF-0.7639385492853054
aF0.058478687856269904
aF0.05842362198946846
aF0.13960545764691726
aa(lp203
F-1.0
aF0.8194060635875261
aF-0.7258011999976226
aF0.9820041537043516
aF-0.46165812713516036
aF0.46064676649684383
aF0.6985199742019581
aF-0.5925568464068639
aF0.1040787190960309
aF0.10498713355676519
aF0.17018198383314803
aa(lp204
F-0.9109221897108614
aF0.62004442411056
aF-0.536666314397841
aF1.0
aF-0.25873739328953616
aF0.3143859903160432
aF0.5547626598316034
aF-0.4754302001410468
aF0.07663890896674624
aF0.07707774770589286
aF0.12671649211180686
aa(lp205
F-1.0
aF0.6397268511459482
aF-0.6010572522470696
aF0.9778249842944473
aF-0.4187273619707115
aF0.41116505482658033
aF0.3787866299575392
aF-0.3466127197309558
aF0.08968702764331193
aF0.09038621326421445
aF0.11816573379481372
aa(lp206
F-1.0
aF0.7435588001044438
aF-0.824454897550461
aF0.8527764984655051
aF-0.48049287328779866
aF0.3940511302451917
aF0.595786891107486
aF-0.6377893503829722
aF0.09384419602437451
aF0.09452733995566193
aF0.1606545976398798
aa(lp207
F-1.0
aF0.6323513483455369
aF-0.6559954196355507
aF0.8712533165103781
aF-0.38855518427851926
aF0.33470456606106475
aF0.45614338769716356
aF-0.4540390816818995
aF0.07452371652920779
aF0.0748102487134371
aF0.12296975251292475
aa(lp208
F-1.0
aF0.2717358637349398
aF-0.33182646386262743
aF0.8087065379970084
aF-0.3581177169830789
aF0.299157835897281
aF0.16486980937212978
aF-0.20723981320514076
aF0.0352636386918019
aF0.035175785755023
aF0.07055303741943776
aa(lp209
F-1.0
aF0.380401834342923
aF-0.4260283470230182
aF0.9055829172846093
aF-0.4729161732246475
aF0.4198619486407242
aF0.15304112675720608
aF-0.19060650285183306
aF0.047941480491475015
aF0.048003486826333944
aF0.09520723296739857
aa(lp210
F-1.0
aF0.7088815770903408
aF-0.7554466556399426
aF0.9416383240380414
aF-0.4077747171782363
aF0.3554719244013328
aF0.7135640273243966
aF-0.7643440308505751
aF0.07540882855225434
aF0.07540584133325803
aF0.16852295217550597
aa(lp211
F-1.0
aF0.3599110348477997
aF-0.36777852817462964
aF0.9240372246666273
aF-0.29634583937112036
aF0.2744161123217734
aF0.31186786443566
aF-0.3124118671869065
aF0.04503232875093751
aF0.04498892772450944
aF0.08717951384249718
aa(lp212
F-0.9966053087301915
aF0.4960561193969289
aF-0.4893008636165414
aF1.0
aF-0.3675447912949966
aF0.36012936707065596
aF0.37470557528155235
aF-0.3728513991072971
aF0.0547946930251971
aF0.054735066443093935
aF0.11160243198974218
aa(lp213
F-1.0
aF0.25363594546941903
aF-0.318247106464551
aF0.8284154923539573
aF-0.4145956439577509
aF0.3371820649061389
aF0.021297531517484865
aF-0.07582789605539358
aF0.03980388489714477
aF0.03994505719784326
aF0.06334151905230462
aa(lp214
F-0.779520881070155
aF0.34497307091462226
aF-0.7726380143084504
aF1.0
aF-0.3773878896859195
aF0.3730428377058907
aF0.31018219308543477
aF-0.7591195427764699
aF0.08206064441118376
aF0.0809832944065231
aF0.15267531972174556
aa(lp215
F-1.0
aF0.29512853235694114
aF-0.3560703469760074
aF0.8390233955621716
aF-0.3656976284425336
aF0.30185891044967844
aF0.1384991085104225
aF-0.18708414285953917
aF0.038099984150063555
aF0.03805060928614432
aF0.0701623900508352
aasS'classification'
p216
(lp217
I0
aI0
aI0
aI0
aI0
aI5
aI5
aI5
aI5
aI5
aI5
aI5
aI5
aI5
aI5
aI5
aI5
aI5
aI5
aI5
aI5
aI5
aI5
aI5
aI5
aI5
aI5
aI5
aI6
aI6
aI6
aI6
aI6
aI6
aI6
aI6
aI6
aI6
aI6
aI6
aI6
aI6
aI6
aI6
aI6
aI6
aI6
aI6
aI6
aI6
aI6
aI6
aI6
aI6
aI6
aI6
aI1
aI1
aI1
aI1
aI1
aI1
aI1
aI1
aI1
aI1
aI1
aI1
aI1
aI1
aI1
aI1
aI1
aI1
aI1
aI1
aI1
aI1
aI1
aI1
aI1
aI1
aI1
aI1
aI1
aI1
aI1
aI1
aI1
aI3
aI3
aI3
aI3
aI3
aI3
aI3
aI3
aI3
aI3
aI3
aI3
aI3
aI3
aI3
aI3
aI3
aI3
aI3
aI3
aI3
aI3
aI3
aI3
aI3
aI3
aI3
aI3
aI3
aI3
aI3
aI3
aI3
aI3
aI3
aI3
aI4
aI4
aI4
aI4
aI4
aI4
aI4
aI4
aI4
aI4
aI4
aI4
aI4
aI4
aI4
aI4
aI4
aI4
aI4
aI4
aI4
aI4
aI4
aI4
aI4
aI4
aI4
aI4
aI4
aI4
aI4
aI4
aI4
aI4
aI2
aI2
aI2
aI2
aI2
aI2
aI2
aI2
aI2
aI2
aI2
aI2
aI2
aI2
aI2
aI2
aI2
aI2
aI2
aI2
aI2
aI2
aI2
aI2
aI2
aI2
aI2
aI2
aI2
aI2
aI7
aI7
aI7
aI7
aI7
aI7
aI7
aI7
aI7
aI7
aI7
aI7
aI7
aI7
aI7
aI7
aI7
aI7
aI7
aI7
aI7
aI7
aI7
aI7
as.