(dp0
S'data'
p1
(lp2
(lp3
F2.7385842607462197e-05
aF0.0025248206718740574
aF2.442409961172614e-05
aF0.4353360638427917
aF0.08256939977329124
aF1.0
aF0.0009679864839355966
aF0.00012397287324684625
aF-4.9602629874788805e-05
aF8.053381493262595e-05
aF0.00020108691874462265
aF0.00019111394445911337
aF0.00015089288180098118
aF-3.8525946631849034e-05
aF-6.321722496575483e-05
aF7.784803342117561e-05
aF5.370902357524856e-05
aF-0.00019452763082114982
aa(lp4
F3.454244395017648e-05
aF0.003362903801237462
aF1.6667572562235025e-05
aF0.43451662135522384
aF0.19111211421475174
aF1.0
aF0.001234878235062035
aF0.0008791738262811101
aF0.0002348379853979673
aF0.00016254856934575277
aF-8.040711563243703e-05
aF-0.00014444707518736243
aF-0.00010705195362376012
aF-0.00023350898424177757
aF-0.00011259748681372511
aF-4.172225093119867e-05
aF-0.00013890922449267482
aF-4.4736944777539067e-05
aa(lp5
F3.778760182437841e-05
aF0.002593180294775812
aF2.6982346717686422e-05
aF0.43314281282164
aF0.13613173150433144
aF1.0
aF0.0001968346475861518
aF0.0009841061422043332
aF0.0001583483214679336
aF-0.00029051738613233467
aF0.00035934968854244714
aF9.93768688710691e-05
aF0.0003101412742663411
aF-0.00030133061032024485
aF-0.00026044625504880473
aF0.00011840341300079274
aF-0.00014243620752791043
aF-0.00013213926095163148
aa(lp6
F3.4173358113071464e-05
aF0.002485159726468875
aF2.385180565695036e-05
aF0.4323137938547015
aF0.10463940924637573
aF1.0
aF0.0021123683206202572
aF0.0018472337790165132
aF-0.000733297677829001
aF0.0004287263806508038
aF0.0005477480082188488
aF-6.949011739542369e-06
aF0.0002544739399045084
aF-6.626644382902836e-05
aF-0.00024188828677708152
aF-0.0006095305629796217
aF0.0003793785012131881
aF0.0004844595043030954
aa(lp7
F1.8029271042016196e-05
aF0.0019316492368425132
aF3.4695589081921825e-05
aF0.5615840277513992
aF0.020065120447010663
aF1.0
aF-0.0017665228994814207
aF0.00027763603605878985
aF-0.0005693642321619322
aF0.0003871940364320984
aF0.00020111862435170908
aF0.00048091607990114024
aF0.00022683088001364013
aF-0.0001602558452398209
aF2.5908942685402805e-05
aF0.0001326042026352079
aF0.00010343390592806742
aF-0.00043179065103450434
aa(lp8
F3.8861967417521e-05
aF0.004146145690960762
aF4.9664414699458974e-05
aF0.5924624662578639
aF0.09333943750360416
aF1.0
aF-0.00042436869741292017
aF0.0005602908884923437
aF-0.0002884992191943443
aF0.0003759717977777822
aF0.00035893259561729557
aF-4.408987832631281e-05
aF-0.0002544112340811427
aF-0.0005369777953280901
aF0.0004911436567539757
aF0.00028072518416366886
aF-0.00045980083182151695
aF-7.668883714511366e-05
aa(lp9
F3.5097144140845316e-05
aF0.00241108270454535
aF3.221883489680195e-05
aF0.4566822441408445
aF0.10216605566701374
aF1.0
aF0.0002775194794016816
aF0.0008976674934970859
aF-0.0005882457218953855
aF0.00041843797887654446
aF0.00013602779101633996
aF0.00038030216506623727
aF0.0002756422112725624
aF-0.00016511355475406312
aF-1.3688250007299912e-06
aF-0.00011179263325832587
aF-5.2235223551176747e-05
aF-0.00019171959190280503
aa(lp10
F1.8518919714734256e-05
aF0.001675996431037083
aF3.403540675164632e-05
aF0.4833691153865909
aF0.027922770053126548
aF1.0
aF0.00021573134613386174
aF0.0011289886953110286
aF-0.00021023696122766705
aF-0.00032475094841986473
aF0.0005402939194188331
aF3.361722406746978e-05
aF-2.655323605935779e-05
aF-0.00011640281504350908
aF-0.00030576303670481786
aF0.00020473293628527067
aF-0.0001449787330152182
aF-1.3041095579425804e-05
aa(lp11
F2.865806009098202e-05
aF0.0020862572556903498
aF1.7903716991740523e-05
aF0.4024575089986441
aF0.09085394695239332
aF1.0
aF0.0013434933791843966
aF0.0008066743912786504
aF-0.0002919465071653595
aF0.00025684039677827423
aF0.0003350871554946708
aF1.5802020767532322e-05
aF4.322787594399572e-05
aF-0.00013139047011338545
aF-0.0002880075462972885
aF0.00020138577001896075
aF-3.425874656420294e-05
aF-0.0003004609923130656
aa(lp12
F4.2308214373232547e-05
aF0.0030173503839215016
aF2.5278555148125455e-05
aF0.41087140107966685
aF0.16161330791771122
aF1.0
aF0.0033358300249314242
aF0.0014922708862123606
aF-0.0002691082628491868
aF-0.0008202737414820283
aF-0.00022755231488554142
aF1.8846449601511747e-05
aF-5.7483991074062815e-05
aF0.00017586663225329486
aF0.0004604172377041698
aF0.00038718617582137745
aF-0.00016670263067620713
aF-0.000493524528122433
aa(lp13
F4.430378551512179e-05
aF0.00252502819404691
aF1.8043375847296997e-05
aF0.3799589984414978
aF0.22442379222365172
aF1.0
aF0.0011436361063845999
aF0.0011748059700606376
aF-0.0001869454594992141
aF-0.00019313320029408818
aF0.00034571483823527097
aF0.00012948647806200312
aF0.0005263015864191526
aF-1.948101830916163e-05
aF-0.0001875332396641355
aF0.00022021929015076289
aF-0.00033679766563365427
aF0.0003032852095928445
aa(lp14
F3.5944197564725776e-05
aF0.0024447541937929244
aF1.1355561047284088e-05
aF0.4169178772086448
aF0.3071436483871576
aF1.0
aF0.0032010237861477514
aF0.0006128342665132981
aF0.00018222431903550804
aF4.734569328367186e-05
aF-7.768963131128275e-05
aF-4.302570834469041e-06
aF0.00015028823170458127
aF0.00023327513329020756
aF0.00012229218795087898
aF7.401028287973277e-05
aF4.270192741601881e-05
aF-0.00015800202729057545
aa(lp15
F1.9449386063416122e-05
aF0.0021376287936596956
aF3.4119210861060664e-05
aF0.5761063257841363
aF0.026395277873594195
aF1.0
aF-0.0007714328441905106
aF0.000827422769879172
aF-0.00022725119180572656
aF0.0004944920677145586
aF-1.2692704871569702e-05
aF0.00032890317877847804
aF-0.00033255775395506974
aF-7.748917403377669e-05
aF-4.877703154220467e-05
aF-3.4751673568478154e-05
aF-7.984376659008376e-05
aF0.0003505565938116665
aa(lp16
F3.714858989189847e-05
aF0.0028740129613672367
aF3.144613620709431e-05
aF0.5521648243485556
aF0.09299713150916226
aF1.0
aF0.00040472175945833815
aF0.001727776428784039
aF6.20142457971778e-05
aF0.00031815306785222655
aF-0.00023017731314972328
aF-0.00014345140496761948
aF0.0004806695181340728
aF-0.0005579553245489459
aF-0.0005625136273245028
aF-0.00033307579469344625
aF0.0002258207508575973
aF-0.0003948049864632057
aa(lp17
F6.747857604572868e-05
aF0.004542916502706588
aF2.922963202456555e-05
aF0.5085076961432113
aF0.3813617849578134
aF1.0
aF0.003823958247196139
aF0.0003318968667617394
aF-0.00034194518214662495
aF-7.378031365737308e-05
aF0.00025827374507480735
aF-0.0003779427980439701
aF0.00023419145126519196
aF0.00034923290095975715
aF6.645632968739726e-05
aF-0.00013589942905353725
aF-0.0007859137632423742
aF-0.00018554149975792794
aa(lp18
F3.544127348297125e-05
aF0.00295792288729877
aF2.557827367137827e-05
aF0.4196389547970495
aF0.13691838931046255
aF1.0
aF0.0018021954855587084
aF0.0003392188159538535
aF-0.0002855327397679253
aF-6.404015684479951e-05
aF8.780972190460555e-05
aF0.00025245748657146404
aF0.00014402888147621413
aF2.0738022882129463e-05
aF-0.0001286317207830155
aF-0.00011129504372288437
aF0.0001321182765096374
aF3.470271755070551e-05
aa(lp19
F2.8395902514773143e-05
aF0.002607203400169186
aF1.0048579586401792e-05
aF0.4564279224321842
aF0.2305106650027987
aF1.0
aF0.003929858350408719
aF4.95123340554974e-05
aF-5.021032093201565e-05
aF-3.5410397807860425e-05
aF2.990698828446692e-05
aF-2.3750126272744286e-05
aF4.506651984406797e-05
aF0.00011577580899646514
aF0.00024233639389871424
aF0.00010755264269807278
aF-5.469408143970868e-05
aF-5.613166174584162e-06
aa(lp20
F3.431659658526861e-05
aF0.0033288709744118995
aF3.717980205477859e-05
aF0.5406806777512635
aF0.08790741000987447
aF1.0
aF0.00028353459158337983
aF-0.0009564366028913296
aF0.00046415808964916
aF0.00017058187777489216
aF0.00012515036693405975
aF-0.00021934534253633919
aF0.00017950508222417636
aF0.0003085936947188259
aF0.0003019114049670987
aF5.779836928048767e-05
aF-0.0001264262439702001
aF3.4230305845905225e-05
aa(lp21
F3.364877550624712e-05
aF0.0038047052925764603
aF2.6087810984313957e-05
aF0.4476556682982274
aF0.17805054573629114
aF1.0
aF0.0019571291613040918
aF0.0013198710677425434
aF-0.0003396948906224625
aF0.0005648076962661832
aF0.0001852026865792485
aF1.6816060044561777e-05
aF0.0001686466617597969
aF-0.00018161663927006305
aF-0.0004525226234178376
aF0.00017000316561690867
aF0.0002493496137874519
aF-0.0003299972805641454
aa(lp22
F2.3939291865542652e-05
aF0.0028625026159709347
aF2.480328975575839e-05
aF0.4260208129811105
aF0.15616189708232145
aF1.0
aF0.0019404335829834485
aF0.00018432196526265975
aF-0.0001253556750740973
aF0.0001250707567524626
aF0.0002826342951238348
aF0.0002089956772301873
aF3.5414601246720995e-06
aF3.271729737787298e-05
aF0.00014018390872127585
aF8.781901028776441e-05
aF2.271117444448884e-05
aF-0.00015253390805785108
aa(lp23
F2.298429076042548e-05
aF0.002510881898657546
aF2.305509896955918e-05
aF0.43532512077072977
aF0.10660936228815807
aF1.0
aF0.0018224771321299674
aF0.0005509398282329428
aF-8.297076483110546e-05
aF8.122323943694749e-05
aF0.00021638194584210893
aF0.00018377067513610076
aF0.00023555229894298737
aF-9.365001271340333e-05
aF-8.950896432521946e-05
aF-0.0002927098123820806
aF8.168802503122951e-05
aF0.00022702038826735325
aa(lp24
F3.1488915330623506e-05
aF0.00380877383745483
aF1.5385236792359923e-05
aF0.43254254550951216
aF0.39715600884731816
aF1.0
aF0.0034164660394732215
aF0.0004779547764812385
aF0.00027519551528335017
aF3.277050526148518e-05
aF-0.00019093841683672853
aF-0.00010925476997226602
aF0.00012232802093400125
aF0.0003633479171094004
aF0.0001486037537999595
aF6.473445653716897e-05
aF-0.00014504234700846112
aF-0.00017737387193089764
aa(lp25
F3.267710899217033e-05
aF0.003993797401795026
aF4.08021450624324e-05
aF0.4802772791786882
aF0.1479429453419148
aF1.0
aF0.002609834992241005
aF0.0003817104262224474
aF0.00016007981443971774
aF-2.2489336000996146e-06
aF0.00031821040133999426
aF2.3835747558411642e-05
aF-5.584127916537906e-05
aF-0.00023387984784361583
aF-0.00043952235872035406
aF0.0004165898596629232
aF0.00027505348775761423
aF-4.147924663898395e-05
aa(lp26
F2.8994512222881725e-05
aF0.0024240026923516432
aF2.4631084835869736e-05
aF0.41666577171413743
aF0.10677808122551158
aF1.0
aF0.0005153856545535559
aF0.0009430525772219553
aF-0.00025149657158934674
aF-9.524842600197909e-05
aF0.0002952128965148111
aF-9.327185467418265e-05
aF-3.810871931726315e-06
aF-0.00012167370714055206
aF1.173737246664286e-05
aF0.00010853424365686198
aF-0.00012547698540344232
aF-2.1315911215260454e-05
aa(lp27
F4.503444842029937e-05
aF0.0026032322857883396
aF1.8838573468225335e-05
aF0.38283316763359904
aF0.39904052569501286
aF1.0
aF0.0014405935476711836
aF0.0009252965340683211
aF-0.0002472242743754896
aF-0.00016602528979840664
aF0.0001900058142370239
aF0.00021116872600529605
aF8.23942004298338e-05
aF2.698282201563476e-05
aF2.464831454751156e-05
aF0.00025813311287951885
aF5.1096137059846084e-05
aF-6.948229721600224e-05
aa(lp28
F3.500044595088644e-05
aF0.0024429365369634097
aF1.961559802627998e-05
aF0.3746874431707081
aF0.20605034344803455
aF1.0
aF0.001043454533988606
aF0.0007993679670896865
aF-0.00013027610720790688
aF0.00024277371120647376
aF0.0003584426623253551
aF-7.982263258600264e-06
aF-0.00011081858067381697
aF-0.00012137348131778189
aF-0.00012273859796032988
aF-8.293357574124944e-05
aF0.0002610599123146097
aF-9.77004035534046e-05
aa(lp29
F3.1247081087917306e-05
aF0.002967811145703834
aF1.4081732516401705e-05
aF0.46890204452620093
aF0.2631152149934716
aF1.0
aF0.003299046120774404
aF1.519878636587331e-05
aF3.4185983780810547e-06
aF0.00014932061629476762
aF5.378064413152559e-05
aF-8.58353297720093e-05
aF-0.00011609586979432677
aF-7.548427436934906e-05
aF2.9623228012423278e-05
aF0.00013205872232091435
aF4.631430337223139e-05
aF-1.388004744095294e-05
aa(lp30
F2.988244626279217e-05
aF0.0033339426122200953
aF1.2992629238553378e-05
aF0.4608507609875209
aF0.27475699511172236
aF1.0
aF0.0033756968849899148
aF0.0002943684789394188
aF-3.043431123030889e-05
aF1.9769983052325327e-05
aF4.795732222930236e-06
aF6.377854763709767e-05
aF0.00011500103603364077
aF0.00019880011350599034
aF-2.796348122038011e-05
aF2.599635152840161e-05
aF-0.00013301862035376702
aF-6.17325152910656e-05
aa(lp31
F2.4304775251495845e-05
aF0.0027197055527918203
aF3.855513980848404e-05
aF0.5377132881975876
aF0.05659354738046095
aF1.0
aF-0.00010066139438089142
aF0.000776765308032161
aF-0.000399770414651526
aF-0.00037941332554016524
aF0.00016983683667200957
aF0.00032555426341337275
aF0.00011837294116008057
aF-4.7984712227661336e-05
aF-3.794390556500133e-05
aF0.0002004103706516102
aF0.00013483335175630852
aF-2.6411848730521764e-05
aa(lp32
F2.1389619965777613e-05
aF0.002132724320575527
aF2.596193025416778e-05
aF0.4649905867334217
aF0.09221654017483132
aF1.0
aF0.0010710023442150125
aF0.0011519892975494024
aF-0.0004621473779636242
aF-0.0003111517476310693
aF0.00034826399889830296
aF0.00033026936575553925
aF0.00017401508083627937
aF-0.00016458304199790916
aF-0.0003732653534902514
aF4.2775041043121114e-05
aF2.074958875436645e-05
aF-0.00017342472346166258
aa(lp33
F3.172096662446878e-05
aF0.003021777320808644
aF2.608114081402946e-05
aF0.4363081337291421
aF0.1616476277406339
aF1.0
aF0.001403229863110331
aF0.0008599420253535003
aF6.355864268749887e-06
aF0.0001426363867490637
aF1.6049819136790748e-05
aF-4.4164466480421605e-05
aF0.0002983473605723562
aF3.297856088552257e-05
aF-0.00021604740093873577
aF-7.179399687757172e-05
aF8.205365736553541e-05
aF-5.069061997507598e-06
aa(lp34
F2.739938166491711e-05
aF0.0027107176232014276
aF3.163012997672507e-05
aF0.46112452479317284
aF0.12005972278526163
aF1.0
aF0.003124498095024574
aF0.0009409577669192952
aF-0.0006516836445010145
aF-0.00017729813586307553
aF-0.00017019726450115313
aF-0.0001545000704270114
aF-6.410431725058414e-05
aF0.0003208113412575497
aF0.0002390215289355426
aF-0.00014913414410648639
aF-0.00028461366165054384
aF-0.00014325554673454732
aa(lp35
F3.358086290975979e-05
aF0.0035022417954255836
aF2.8004711867659087e-05
aF0.43790470714661184
aF0.2683144397635839
aF1.0
aF0.0020503607866151313
aF0.0007373022423493911
aF-1.6162158070601915e-05
aF8.678303330432143e-05
aF0.00015052801760339095
aF-0.00013294716355224023
aF-0.00011537272713290297
aF2.000698892942585e-05
aF0.00024453284573888517
aF0.00010817412033640418
aF-1.3553807411125843e-05
aF-5.186653303801151e-06
aa(lp36
F4.059238196644817e-05
aF0.0034125385176598387
aF2.184568567766236e-05
aF0.43515716484833156
aF0.2898668093130022
aF1.0
aF0.001787709077607148
aF0.0007992913832015008
aF-0.00036532016866262226
aF-5.434502473669983e-05
aF-7.955490070026939e-05
aF-9.043985942283679e-05
aF5.981332400631927e-05
aF-0.00023640098247146955
aF-4.124444750971814e-05
aF-2.2543420437854197e-05
aF-0.00020341352839470212
aF-0.00015689001757939491
aa(lp37
F2.5252135734780225e-05
aF0.003202050737294436
aF3.674565808515618e-05
aF0.48242661503975515
aF0.10350643036852665
aF1.0
aF-0.0007178373623895743
aF0.0004755202131901722
aF-0.0005243729703083271
aF-0.00046320918834002003
aF-0.00033119800543800573
aF0.0002706289873311008
aF0.00011090360804777911
aF0.00037125467105339027
aF0.00018976278017305404
aF6.566058345724795e-05
aF-4.814705961988603e-06
aF8.673250928619904e-05
aa(lp38
F4.298795273151544e-05
aF0.0041287356731536705
aF3.72393818179059e-05
aF0.5313389601444181
aF0.20419201118188174
aF1.0
aF0.0023018470827051983
aF0.0007380738692214316
aF0.00015125553136482414
aF0.00033720040514102144
aF0.000457566664091077
aF-5.1114042451360724e-05
aF-8.44803228314465e-06
aF0.00027249150044111024
aF-4.005584205054319e-05
aF-0.00036515720668919713
aF-0.0002134010032667278
aF3.496338208660994e-05
aa(lp39
F3.991453524296761e-05
aF0.0038074995991768854
aF3.44689843413932e-05
aF0.5077846080475604
aF0.1894587996719479
aF1.0
aF0.007939179096860488
aF0.001104882209708793
aF-0.0012827984357215178
aF-0.0008041507879424966
aF-0.0008715843772188077
aF0.00029129766721893785
aF-0.00045844024912449323
aF0.00020840563755550196
aF0.000645460778223254
aF7.749683075832508e-05
aF-0.00023357784741325453
aF-0.0006122917176200579
aa(lp40
F2.422710004421127e-05
aF0.0024349488309664733
aF2.0876517649758122e-05
aF0.39326448443295403
aF0.1136678482606518
aF1.0
aF0.002346203780886375
aF9.245822681859897e-05
aF-6.552958043058119e-05
aF-0.0001010929725705842
aF3.285846236017582e-05
aF0.0001888527810575701
aF0.0001806404270124602
aF6.250624056383587e-05
aF-8.732538122711595e-05
aF-8.668337530962069e-05
aF9.515664021628168e-07
aF9.302454200794383e-05
aa(lp41
F2.5790393699613047e-05
aF0.0037131491418590638
aF1.2299403435315081e-05
aF0.4593582030375585
aF0.3544232284813198
aF1.0
aF0.004562196213827238
aF0.00016368577785353273
aF4.3515971454110845e-05
aF9.265173443518555e-06
aF-4.394806348206109e-06
aF3.278598332230659e-05
aF9.187143894153305e-06
aF4.4343242275074784e-05
aF6.044318748391891e-06
aF8.410496271346071e-05
aF6.41807858438163e-05
aF1.3364134148516644e-05
aa(lp42
F2.592569199753362e-05
aF0.00355711672292899
aF3.4487847206048395e-05
aF0.4767589798118432
aF0.10816838940243047
aF1.0
aF-0.0003993561834324862
aF0.0007027163543398673
aF-0.0003132719903747291
aF-0.0005236421781621832
aF0.00038430614847228693
aF0.0004550361299643084
aF0.0003434948905661544
aF0.00019779980445452035
aF-6.925084894484727e-05
aF-0.00020856357407201818
aF4.165023409838175e-05
aF-0.0003908081722255528
aa(lp43
F2.514346382527748e-05
aF0.0029643894762841167
aF3.261984851612607e-05
aF0.517488054206961
aF0.08874300755378035
aF1.0
aF0.003255146229686455
aF9.247557663197356e-05
aF4.82874722921382e-05
aF-9.110841095652027e-05
aF-8.32965682636488e-05
aF-0.0001074214007152468
aF-0.0001768348440948477
aF-0.000249318675983898
aF-0.0002662320651609943
aF-0.00016172928777125826
aF-4.30667630694342e-05
aF4.415742990601253e-05
aa(lp44
F5.591007076282115e-05
aF0.004620127146319893
aF2.6395232054212946e-05
aF0.41741721592866066
aF0.6840010339631176
aF1.0
aF0.005006870033116439
aF0.00020524970983725168
aF-0.0002127903477510548
aF-0.0001486982406707497
aF0.00023256588373018593
aF0.00014135267363184182
aF-0.0001115621651410606
aF-0.0002051865720363058
aF-0.00017354917154376544
aF-4.036503669748197e-05
aF0.00017464287547263576
aF-0.0001814256303011299
aa(lp45
F3.692554075054132e-05
aF0.0036504990646642117
aF2.413926851985399e-05
aF0.39893345209205094
aF0.29512968404163703
aF1.0
aF0.0019271547178085452
aF0.0008914133933341606
aF-0.00032854719161647827
aF-0.00024090141204722752
aF0.00010267084695196833
aF0.0001914942078932511
aF0.00023320725041400825
aF-0.00031596541387330144
aF-0.0003543233470159471
aF7.400234353148164e-05
aF8.462272621781362e-05
aF9.449158189038154e-05
aa(lp46
F2.6972663305104926e-05
aF0.003450269654958273
aF1.2001721291877646e-05
aF0.4069357050295003
aF0.4447515815765538
aF1.0
aF0.003795216958250197
aF0.0010400074030932184
aF0.00033207998709607083
aF0.0003113240231669876
aF-0.00022079185777596424
aF0.0002205755291781543
aF-0.00021657849789268865
aF-5.6227408345706446e-05
aF-0.0001062058989432863
aF0.0001421599328803133
aF-0.0002349328822351746
aF8.300389613009795e-05
aa(lp47
F1.8908434778702345e-05
aF0.002664179825761791
aF4.257469951687848e-05
aF0.5733267235418034
aF0.05030879410110881
aF1.0
aF0.00041277903503394764
aF0.00012989645597068225
aF-0.00015636229861604775
aF-3.234688676453157e-05
aF7.584930502235916e-05
aF0.00026571059387085175
aF-0.00030663728704540823
aF-0.00039422800666382265
aF-0.00036705437921612347
aF-0.0002911777973728494
aF0.00015188965936575085
aF-0.00027377120662946453
aa(lp48
F2.73468948656466e-05
aF0.0028071442197586355
aF2.4488374130700738e-05
aF0.45222645747702866
aF0.1360518505872108
aF1.0
aF0.0025160556278929834
aF-2.4384453499272917e-05
aF-3.445029099313936e-05
aF-0.0004132698784128358
aF0.0006960687781624368
aF4.176395779186648e-05
aF0.00026063396716709145
aF2.911429110779295e-05
aF-0.00020673027807809402
aF-7.69658586690342e-05
aF0.000229660928765312
aF4.7163977808087355e-06
aa(lp49
F2.725084867830094e-05
aF0.003042955261731118
aF2.6355808765482493e-05
aF0.5112945790942237
aF0.09257590519161188
aF1.0
aF0.0007395379082656096
aF0.0010167406528823564
aF-0.00011997095940116609
aF0.00011520759737769714
aF0.0006534250062009551
aF-0.00020629915829083515
aF-0.00025958398980754465
aF5.883656911995554e-06
aF3.484282776629071e-05
aF-0.0006075246129708531
aF-0.00023606584724095647
aF6.563995849168852e-05
aa(lp50
F3.919967740758438e-05
aF0.003365187303635493
aF1.6723494225681646e-05
aF0.38376969161082475
aF0.3768394456095001
aF1.0
aF0.002137342515536093
aF0.0010774514371255945
aF-0.00012578625077272964
aF-0.00027556003381202783
aF0.00011070730050860737
aF0.00020085082110600963
aF7.174514739935038e-06
aF-9.388712987706368e-05
aF-2.4710698215152737e-05
aF0.00017755190780680295
aF-8.86963186226542e-05
aF-0.00025724234753410867
aa(lp51
F3.265580976889286e-05
aF0.002621657101079007
aF2.125640454505983e-05
aF0.40592228381735124
aF0.17065980299310995
aF1.0
aF0.0012666103680941216
aF0.0013984850403898452
aF-0.000624967113545615
aF-0.00021424570698877547
aF8.909718671046673e-06
aF4.9663558564214286e-05
aF0.00027850888911374786
aF0.00016339203671123683
aF-1.1521640549344222e-05
aF-1.3799093805272767e-05
aF-6.205483112885972e-05
aF6.84883383293623e-05
aa(lp52
F2.2846954582561096e-05
aF0.0030045803731714596
aF1.2329553653526869e-05
aF0.43397377662091086
aF0.24833678774406143
aF1.0
aF0.004093479320434346
aF0.00014986556392007183
aF2.0509087086351005e-05
aF-1.47639099447019e-05
aF5.7790967506517225e-05
aF0.00019592730327623795
aF0.0001148113207672196
aF7.102910794588778e-05
aF7.123974325840372e-05
aF1.061221181596463e-05
aF-0.00010402592229345672
aF-5.914968804503269e-05
aa(lp53
F3.0250915128021976e-05
aF0.004128480782528265
aF3.2087451590546824e-05
aF0.5136390983856098
aF0.12064927528358146
aF1.0
aF0.0003072619758667099
aF0.000883629255825456
aF-0.0002211546724792572
aF4.396011712536224e-05
aF0.0002720176135492385
aF-0.00010962712816516416
aF0.00034461063595358956
aF-5.215507414560976e-05
aF0.00015141366993879442
aF-0.0002913189513713019
aF5.863457697769298e-05
aF-0.00018122314529770537
aa(lp54
F2.4432255071475835e-05
aF0.003649627813626263
aF3.4063754452421376e-05
aF0.5341168556136631
aF0.07909988336861157
aF1.0
aF8.708159731372099e-05
aF0.000334457142650241
aF-0.00038406986245693764
aF-0.0006326963759270856
aF-7.46601032102077e-05
aF-4.6967637164530745e-05
aF-0.00032065466125036243
aF1.0058402240133165e-05
aF9.606267437569162e-05
aF-0.0002679562263229491
aF2.9569355976099644e-06
aF-0.0001426441395550552
aa(lp55
F3.256582577893716e-05
aF0.0028233507286742443
aF2.722313478184908e-05
aF0.4613586152154226
aF0.15701768142613884
aF1.0
aF0.0024024854608741025
aF-0.00014274088336423924
aF-4.865190700915162e-06
aF0.00019807130964712212
aF0.00048086871001982534
aF0.00019139631327175612
aF3.514972526113258e-05
aF-0.00036256328298616845
aF0.00016072202229096256
aF0.00010478938239789861
aF1.2594575793754871e-05
aF0.00012752998824248514
aa(lp56
F3.975566884108876e-05
aF0.0034718443472475467
aF2.4898268218126506e-05
aF0.46503791797969024
aF0.19674508155381415
aF1.0
aF0.0040737322917404825
aF-5.1321396966043924e-05
aF-0.00012952691125292574
aF-0.00014012862514773574
aF-0.00026692040369846097
aF-0.00018416651504270465
aF-0.0002511948200639278
aF-0.00017676190356878904
aF-0.00017070698858167647
aF-4.3517810524575107e-05
aF-7.135604701726555e-05
aF2.5537162902651973e-05
aa(lp57
F2.9806124779274067e-05
aF0.002434191025835938
aF1.7062183671712486e-05
aF0.34381451419079967
aF0.18077073539240082
aF1.0
aF0.004517767149611647
aF0.0006349319916462955
aF-0.0006208595581895857
aF-0.000472953310553764
aF-0.00013450184351381848
aF-3.773138922675492e-05
aF-0.00015119124754465796
aF1.699595299060405e-06
aF0.00026935833620609766
aF0.00020769757656302352
aF-2.0660060657708245e-05
aF-0.00023535524698627458
aa(lp58
F2.230219011746058e-05
aF0.0017567160665376792
aF1.729938800292586e-05
aF0.3699713537022006
aF0.08554313443730258
aF1.0
aF0.000983653948783892
aF0.000649862476511705
aF-0.00015294975265394214
aF-0.00010267635352787454
aF0.0003260729059131935
aF0.0003915203348376107
aF0.00024088158723471905
aF-9.331805254739163e-05
aF-0.00014292174867380167
aF-0.000277400440132028
aF-8.82574808051299e-05
aF-0.00010198272969889342
aa(lp59
F2.7578142035267746e-05
aF0.0026925365473920537
aF1.0275600982402357e-05
aF0.39940019466899507
aF0.256104712096851
aF1.0
aF0.0040499938509352225
aF0.00028489799573653483
aF0.00023839370480297295
aF0.00013550685609084063
aF1.58067825398805e-05
aF-2.4896512872574264e-05
aF3.069592618194321e-05
aF4.560864181821464e-05
aF4.0928390257752335e-05
aF3.044576614460958e-05
aF6.838882040626141e-05
aF-1.3650980860301965e-05
aa(lp60
F2.7168997870043426e-05
aF0.00353335443251428
aF2.7274729186826097e-05
aF0.5214134229751028
aF0.09726154346659255
aF1.0
aF-0.0009187120837717325
aF0.001064727178476785
aF-0.0005015757719692964
aF-9.541975316797919e-05
aF0.00018282601337557802
aF0.000223700736497509
aF0.00010493801791031604
aF5.4599220068268415e-05
aF8.548840726250872e-05
aF-9.726166544573574e-05
aF-7.69292247780858e-05
aF0.00028107183170697774
aa(lp61
F2.3338207388521984e-05
aF0.002760887637966929
aF2.1191008852829762e-05
aF0.5045826330928826
aF0.0709028483346409
aF1.0
aF0.0013102329038204364
aF8.929331628698434e-06
aF-0.00012982106033104866
aF-0.00010630857681601058
aF2.2072468465826974e-05
aF6.44429896828822e-05
aF6.860558394622033e-05
aF-7.890250854411353e-05
aF-6.913085708309358e-05
aF2.3613729451972772e-05
aF4.008819192650302e-05
aF5.171117680278664e-05
aa(lp62
F2.8477244250342583e-05
aF0.0030394315495619415
aF4.638753696469088e-05
aF0.5785090425976566
aF0.05605684117129876
aF1.0
aF0.001193979769637809
aF0.0003763559232573884
aF1.0749077966438974e-05
aF-0.00030249555937317496
aF0.0004939338201140492
aF-3.078925993089131e-05
aF6.516476940158247e-05
aF-0.00018631004975083894
aF5.7289242111774036e-05
aF8.559396056063203e-05
aF-4.477431043413488e-05
aF-0.00012977333383825738
aa(lp63
F3.2550154988541056e-05
aF0.0026607217453455357
aF2.62203810398244e-05
aF0.4861732279411182
aF0.07394573759235526
aF1.0
aF0.001173478216635646
aF0.0006217744077709362
aF9.701153169231332e-05
aF-0.0004326537842480521
aF8.682272011157255e-05
aF0.00019457558874802004
aF0.000327697114191785
aF0.0003899299241813949
aF0.0002666421243403068
aF2.4899227521820682e-05
aF0.0003214378559523851
aF-0.0002618480518820301
aa(lp64
F1.9573202324039864e-05
aF0.0021388237703357546
aF3.4763556229060735e-05
aF0.5583971168989834
aF0.025876404105927453
aF1.0
aF-0.0011003075358777376
aF0.0006072490387806885
aF-0.00016686585606791174
aF3.3432264082935256e-05
aF0.00018561000302998504
aF0.0001571350876921306
aF-0.00011335596393386902
aF-0.00019374566836309674
aF-0.00024108863760496457
aF0.00020298364581997522
aF0.0002859025605481545
aF8.650551073418808e-05
aa(lp65
F2.4742623472268528e-05
aF0.002739955917745897
aF3.778288692204669e-05
aF0.5144354669549643
aF0.06667632628490155
aF1.0
aF0.0011418162279536847
aF0.00017948357988118469
aF-0.00010668941111137839
aF-0.00014726484619214617
aF0.0003804543882206551
aF0.00026578256657679394
aF6.190472495433838e-05
aF-0.00010164615658689628
aF8.746902259425416e-05
aF8.091227238468339e-05
aF1.171431452594305e-05
aF-6.908272100572733e-05
aa(lp66
F3.46456386304733e-05
aF0.0024694498152675933
aF3.0262912885700544e-05
aF0.5172423753627815
aF0.08075229779926979
aF1.0
aF-0.0005242994647181482
aF0.000780737008425384
aF-0.001417505608760611
aF0.0002121948307035642
aF0.00026376960776183236
aF-0.00014045951768612523
aF-0.00021151318848316517
aF-0.00044979920959846594
aF-0.00028123697274523097
aF0.00040520814116887965
aF-7.688941574921464e-05
aF-2.3219345682093602e-05
aa(lp67
F3.5107148436105077e-05
aF0.00222773891741019
aF2.097038336173707e-05
aF0.3967714976263983
aF0.10069060736819312
aF1.0
aF0.0017822154419198783
aF0.0005880632274489904
aF-3.2034451680466716e-05
aF-6.339668036051988e-05
aF0.0001258326383783356
aF0.00020550689618949728
aF0.00024613992195525436
aF-0.00021322848379348627
aF-4.1654831753532834e-05
aF0.00035851263268188324
aF-0.00011805387542399487
aF-0.00030969595473631683
aa(lp68
F1.835838760367737e-05
aF0.001566394100891755
aF3.504634398141789e-05
aF0.5559212279925704
aF0.025402842907466472
aF1.0
aF-0.0011203430566159847
aF0.0009049923006882512
aF-0.0005110259348893426
aF-0.0001451426345168892
aF2.0500397534434723e-07
aF0.00010321601174585494
aF0.0002794532832592336
aF6.467644849606635e-05
aF-3.0527724363278616e-05
aF6.048206399458658e-05
aF0.00023841805085059295
aF-0.00019903599119323222
aa(lp69
F2.4779860194219112e-05
aF0.002201202480633563
aF3.358719950014988e-05
aF0.5715099271014896
aF0.03491188527235152
aF1.0
aF-0.00047243870295493243
aF-0.0003152911212361423
aF-0.00023383366777544735
aF0.0003555336267449023
aF0.0008953439319985434
aF0.00034503237242283384
aF-0.0003478313872146726
aF-2.3793306774014158e-05
aF1.7874506451342684e-05
aF1.3881124744734656e-05
aF-0.00023647360144719723
aF0.0002651255740166229
aa(lp70
F3.998598700717748e-05
aF0.0025273421728073796
aF2.4049996156383743e-05
aF0.43776144646879434
aF0.11702696905934881
aF1.0
aF0.002822964758737968
aF0.0005424292871632596
aF0.0001480438292711207
aF-3.614085217381746e-05
aF9.073819252994618e-05
aF2.409953156500144e-07
aF-8.484616806576312e-05
aF0.00010252218086655272
aF0.00027638288946175976
aF9.084226368122233e-05
aF-2.62582394269717e-05
aF2.783443008552445e-05
aa(lp71
F3.663962973247193e-05
aF0.0029115918532629926
aF3.318324368585876e-05
aF0.4716975429637142
aF0.1052396276631688
aF1.0
aF0.002994905347044867
aF0.00017945608957789915
aF0.00017940961197036097
aF-6.770368359824667e-05
aF-6.125807908118704e-05
aF0.00024510147229507757
aF0.00037729129217810856
aF0.00033888135276110903
aF0.00014519466253567654
aF9.680105626675613e-05
aF-0.00013887856743997825
aF-0.00022492716758401788
aa(lp72
F2.2737517781916317e-05
aF0.002110742525364723
aF4.3075518925653584e-05
aF0.6011061871826345
aF0.03643212455161755
aF1.0
aF-0.0011059784677469554
aF-8.860729053805657e-05
aF0.0005760617129733748
aF-0.00013924584446601353
aF0.0006600212968930191
aF0.00041479791533330216
aF0.00012936665579010582
aF-0.00013569221268632033
aF0.00028893211155106444
aF7.678238162822256e-05
aF-0.00015337251779082913
aF-0.00023004753555382312
aa(lp73
F2.4480958176608548e-05
aF0.0037174058343975485
aF2.584045573565988e-05
aF0.4743101396665808
aF0.17260240642312727
aF1.0
aF0.0016514861099877032
aF0.00015408158532111493
aF0.00033294094064722845
aF0.00012964442078274802
aF0.0001390468387276907
aF6.996848744457379e-05
aF7.83235105229124e-06
aF6.60923320190728e-05
aF1.236105211114539e-05
aF-1.6369833410151172e-05
aF3.775873734838251e-05
aF-5.104307850239748e-05
aa(lp74
F2.321937569241696e-05
aF0.0025521526373743515
aF2.404600961647212e-05
aF0.46275626010906096
aF0.10638443697210251
aF1.0
aF0.004414408622862609
aF-7.766827361706591e-05
aF-0.00012093378511991491
aF-5.4000859905851025e-05
aF0.00013554587360725418
aF-3.512764007602497e-05
aF-3.774887083092818e-05
aF-3.9712318068109735e-05
aF1.8623071584389625e-05
aF1.1474702645971758e-05
aF-0.00011128921103081001
aF-7.591230674426039e-05
aa(lp75
F2.4981611214700045e-05
aF0.002607252659611363
aF2.6170059902140125e-05
aF0.48530897270013795
aF0.0928825600703914
aF1.0
aF0.0023846523913531132
aF0.0006356711762432955
aF4.638460712542491e-05
aF-0.00013542715980043566
aF-2.0018481888921535e-05
aF0.0002295124155356754
aF0.00033479329109691416
aF0.0003420871347918009
aF0.00036985281782133826
aF0.0001234288826682462
aF-0.00017617960089733397
aF-9.808297201797971e-05
aa(lp76
F2.6202782516249827e-05
aF0.003009917084519571
aF1.8965450256244204e-05
aF0.4363913524614741
aF0.16674298997973283
aF1.0
aF0.0035255006224741417
aF0.0003658977092632782
aF0.00029970428159577873
aF9.962164403236668e-05
aF-3.384080834840128e-05
aF-3.602158389432892e-05
aF0.00015020534940120894
aF-1.8359959033234545e-05
aF1.1990042617672778e-05
aF-7.503727547642194e-05
aF3.239815465705938e-05
aF-4.6157816916773985e-05
aa(lp77
F2.15638140484663e-05
aF0.0032650880010112707
aF3.920384765892826e-05
aF0.518749066412137
aF0.06552331383367288
aF1.0
aF0.00018796316881470918
aF0.00023939816820970773
aF-0.00024648247781113063
aF0.00023246828121171068
aF0.000308766877250028
aF0.00017920230271046078
aF0.00024063148764860414
aF-0.0003056111035415984
aF-0.00035798238328021514
aF-7.52395846349696e-05
aF0.0004573593250670446
aF0.00038188821904157344
aa(lp78
F1.8558991982064607e-05
aF0.0026330684967189
aF4.391419240353593e-05
aF0.5340802570209499
aF0.04539738475470866
aF1.0
aF0.000524187357009651
aF0.0005970599773907738
aF-0.000210235418451306
aF0.0006401106728738418
aF0.0004132698185792507
aF0.00026891644241075756
aF-1.530758223469275e-05
aF-0.0005131772136887961
aF5.811179052885122e-06
aF0.00023075900307198869
aF3.3846397969815117e-05
aF-3.948357898951831e-05
aa(lp79
F3.657483155109472e-05
aF0.0033210679396420235
aF3.5355086832508715e-05
aF0.45663163976161636
aF0.23092806322084833
aF1.0
aF0.002396083062534889
aF0.0002270950602309407
aF-0.00041404491079719143
aF-4.3182472134409904e-05
aF0.00022867777196702385
aF0.00016660383643001542
aF-7.827741234732916e-05
aF-0.0002815970133658603
aF-0.00011190044902704222
aF8.696229613376386e-05
aF-8.482259363450145e-05
aF-0.00010499601628489563
aa(lp80
F4.3486813627147e-05
aF0.0030482698827146797
aF2.2339951464529604e-05
aF0.3995915961210817
aF0.2279800529826204
aF1.0
aF0.0022006846567887268
aF0.0007936479138597428
aF0.0001128133135123857
aF-0.0004972721982924027
aF-1.5466720469455614e-05
aF-0.00016627512556262919
aF0.00011000832849562773
aF7.284788125772011e-05
aF-0.00011142843344751912
aF3.547564620031679e-05
aF-0.0002346231678724393
aF-0.0002374346390541881
aa(lp81
F4.4353625615099426e-05
aF0.002897176514846593
aF2.0396193458627623e-05
aF0.4663626525500864
aF0.30207814812192496
aF1.0
aF0.002701103742869246
aF0.000618398926271024
aF-4.57521858692397e-05
aF-0.00026840414301123206
aF5.5594588305795406e-05
aF0.000131557354301096
aF0.0002040750814550395
aF-7.580302905358935e-05
aF8.131794657317009e-05
aF2.574466044722621e-05
aF-5.57465081636734e-05
aF-5.827058304267511e-05
aa(lp82
F2.8762704477240225e-05
aF0.003331148673237618
aF4.761651825315265e-05
aF0.5858941194787259
aF0.06184870231550566
aF1.0
aF-0.0007578895392452216
aF0.00045969052918517334
aF-0.0008065971394239402
aF0.00015811527181466234
aF0.0002698185775050726
aF-0.00010062982905290542
aF-0.00043829068704971083
aF-6.563588269107568e-06
aF0.00027665637300843996
aF0.00019113619545591267
aF-0.00021336151629259306
aF-0.00011592152109387697
aa(lp83
F2.8813394877662504e-05
aF0.0029381024699882455
aF3.0980996608582415e-05
aF0.5092018309995783
aF0.08747415346026267
aF1.0
aF-0.0002297111797591858
aF0.0011880445625008411
aF-0.00030772908577099693
aF-0.0002952046038539183
aF0.0002945228847539476
aF0.00012052974271447499
aF0.00019070567943393094
aF2.588994797015261e-05
aF4.556068944798507e-05
aF-0.00046256008024429747
aF0.00016947302246047256
aF-9.972974509947498e-05
aa(lp84
F1.724573172075017e-05
aF0.002718518846637985
aF3.3276365309278525e-05
aF0.531212342383405
aF0.056797943403098294
aF1.0
aF0.0005178252416871963
aF0.0008101638478680714
aF-0.00045580217076026357
aF0.0002419385747752176
aF0.00020506547286909508
aF0.00010317311035551347
aF0.0002033294510625379
aF-0.00015826954374672416
aF-0.0002915328443303845
aF0.0003231000917471547
aF0.00033805147981915855
aF-0.0002728896590140131
aa(lp85
F2.7282375780308452e-05
aF0.002562293335678441
aF2.3694381232545553e-05
aF0.4157082738876726
aF0.12459214089535209
aF1.0
aF0.002159370844105186
aF0.00044313968922902607
aF-1.0283262736400922e-05
aF-0.00021548244159791115
aF-0.00017615555189488737
aF3.7238084921755925e-05
aF0.000225177374620726
aF0.00011933072703080121
aF0.00010421245245964593
aF-6.7018614557221335e-06
aF-5.417656718114845e-05
aF4.674261130136576e-05
aa(lp86
F2.7714362256489026e-05
aF0.0028452320337746238
aF4.132769785632148e-05
aF0.5122855830173504
aF0.07267209396936283
aF1.0
aF0.0006774822334658801
aF0.0006430571662563743
aF-0.0008838692014996967
aF0.0004559134975623386
aF0.00015903502885095122
aF0.00024250402502094993
aF0.0003350445594429936
aF-0.0003188154991205385
aF-5.3857034670088695e-05
aF0.00022383559313742392
aF-8.00287796481733e-05
aF0.00017305041142226464
aa(lp87
F3.7080446188479634e-05
aF0.0031032051100653673
aF2.3165826049370795e-05
aF0.3841112645675403
aF0.2312581179620107
aF1.0
aF0.002859928103195892
aF0.00022924288352145828
aF0.00016431017489759915
aF-0.0003610397515911028
aF-0.0004116966483322274
aF-0.00013410047975216937
aF0.0001487925940195667
aF-2.7463972280565268e-05
aF9.137405626406591e-06
aF2.1416202541975873e-05
aF8.89595843878181e-05
aF-0.00014720667095869636
aa(lp88
F4.2388183531657606e-05
aF0.003294642253261705
aF1.4382653866563362e-05
aF0.39894927681609793
aF0.5244003828830315
aF1.0
aF0.002123858660622662
aF0.0006463593413094493
aF0.00020911398699851073
aF-2.3775021586613926e-06
aF-8.279851741897056e-05
aF0.00015794079212944363
aF8.825266059902956e-05
aF0.0002163544950695481
aF2.1693174666048095e-05
aF-0.0002660101828721557
aF-0.00011810266623923524
aF-1.5644965925732077e-06
aa(lp89
F4.049773260821212e-05
aF0.003935987385405308
aF4.194823322055275e-05
aF0.515780382446929
aF0.18988934493452062
aF1.0
aF0.002526122168779055
aF-0.00016523175808454222
aF0.00011689881514481233
aF-0.0001718748516368587
aF-3.296290192163088e-05
aF0.00043157854078860797
aF0.0001384793997065927
aF0.0004133076548792104
aF-0.00022480855662603143
aF-0.00023593954390740035
aF-3.212169811182656e-05
aF-0.0002353190066303185
aa(lp90
F2.5731357070950137e-05
aF0.002919570984206756
aF4.371732985166377e-05
aF0.5696672757075397
aF0.06260916411577404
aF1.0
aF0.0003327928800733526
aF0.0006734105210368464
aF-0.0001363589856290069
aF-0.0005408799043981955
aF9.992639313922173e-05
aF-9.800792322249307e-05
aF1.7454923970177603e-05
aF-0.00019228620580273744
aF-4.823614684120594e-05
aF2.124861276886951e-05
aF0.0004225693507811257
aF5.074586337431361e-05
aa(lp91
F2.8814623174744527e-05
aF0.004325123165776872
aF3.244829265777829e-05
aF0.5185666625737245
aF0.17173419648183533
aF1.0
aF0.002335679865512254
aF0.0001324124067865043
aF-0.00035615297542715033
aF-0.00032969699803396627
aF-0.00015378877649599874
aF0.0001446915642657631
aF-2.287631235686899e-05
aF-3.4163098276266456e-05
aF-0.00015377254596909938
aF-0.00010817573151871092
aF0.00012780281993639658
aF0.00013863404531423934
aa(lp92
F2.653956605510165e-05
aF0.003124428578868573
aF4.470360631321193e-05
aF0.5577419928184352
aF0.09252440592316251
aF1.0
aF0.0002879934787208391
aF0.0006005870140161954
aF-0.00010644193654020931
aF-0.0001266297709518223
aF0.000552732451244133
aF8.451772992361945e-05
aF8.884880861600892e-05
aF-0.0003222195425735159
aF0.0003033925853222504
aF0.0003423670854967121
aF0.0001412506580233911
aF-0.0002860014250698615
aa(lp93
F3.402363154474365e-05
aF0.0041001807331052876
aF3.774185024947842e-05
aF0.541215387382544
aF0.15588843632588226
aF1.0
aF0.0008098138617390198
aF0.00092462930895686
aF-0.00025088916297176707
aF-0.00019135252870274802
aF0.0005882667705776599
aF-8.036182137238252e-06
aF-5.7712296156434175e-06
aF-0.00026621961568781
aF0.0002557260803495639
aF0.0006357850933736935
aF-1.63665388032722e-05
aF-9.592334013173343e-05
aa(lp94
F3.424783427816771e-05
aF0.003351645287650197
aF2.668717528155034e-05
aF0.4277478661046888
aF0.23997145749050705
aF1.0
aF0.0034391275176406506
aF0.0008822475784334363
aF0.0002746176596161912
aF-0.0001405421152400173
aF-0.00026545317048891457
aF-3.617418873494951e-05
aF0.00035985049203428467
aF3.599438218202147e-05
aF-6.371299930088957e-05
aF1.5960983053536e-05
aF-6.0718672888931834e-05
aF-3.3531345835187707e-06
aa(lp95
F4.1066946104191575e-05
aF0.00390628994056062
aF2.5827153629464346e-05
aF0.4268030879894324
aF0.33369433144232624
aF1.0
aF0.004428422140426249
aF-0.00012319952734241103
aF1.9699470299155504e-05
aF-0.0002683510189712297
aF0.0002564257372820673
aF3.814541400421831e-05
aF5.979212391836401e-05
aF0.0002775867640946679
aF-0.0002571153675068899
aF-8.73445387634945e-05
aF-0.0001632261463948848
aF2.2697265972129693e-05
aa(lp96
F4.714044232545297e-05
aF0.004397768918090357
aF2.1350701396652493e-05
aF0.4123164152524525
aF0.6242641457503297
aF1.0
aF0.004258243995590009
aF0.00019131186051324684
aF8.138322212643308e-05
aF2.8877412909887307e-05
aF-1.98600524333188e-05
aF9.693563619193933e-05
aF4.952151929305488e-05
aF-3.588131837822615e-05
aF2.599527122234968e-05
aF-1.8749401854524493e-05
aF5.619170229358146e-05
aF4.478274098204052e-05
aa(lp97
F3.126618852035837e-05
aF0.0042276083425097045
aF4.061258027770103e-05
aF0.5518939943971595
aF0.14425426881176603
aF1.0
aF0.0012573670972445593
aF-0.0002783280772364967
aF-6.370252221874207e-05
aF-9.668692624184443e-05
aF0.0002837900592802387
aF0.0004157334559427604
aF0.00020480506031769053
aF-0.00026395007577377597
aF6.688330514734874e-05
aF0.00020536112775418181
aF0.00010218587729462036
aF-0.0006159770945557873
aa(lp98
F3.547692086544735e-05
aF0.0035381328386920982
aF2.5438699180808603e-05
aF0.4558132191754286
aF0.23607373411237578
aF1.0
aF0.0015821205823526854
aF0.0006668650634881712
aF-0.000636105151653547
aF-0.0005183891854778495
aF0.0004971627544575987
aF6.365216935492828e-05
aF0.00030870815883025937
aF0.0003431592275701565
aF6.235339606077536e-06
aF-0.0005414801305319098
aF-0.00014561350942546747
aF-0.0003609904753655395
aa(lp99
F2.406319752461508e-05
aF0.002012665804083247
aF1.776841384724103e-05
aF0.39073605226924485
aF0.11289562106738286
aF1.0
aF0.001982182948030919
aF0.0003178933772004549
aF0.00012655487666953717
aF-0.00013712138238331336
aF6.30300715265325e-05
aF0.00017883731701111055
aF0.00018201648510498612
aF6.222256259418329e-05
aF2.4224437679901162e-06
aF-0.00030112930338642543
aF-0.000281944073807369
aF-5.545958458412403e-05
aa(lp100
F3.178289888848732e-05
aF0.0035343568212979127
aF3.1423565481309755e-05
aF0.5223281283000701
aF0.11954773038274093
aF1.0
aF8.566906332056516e-05
aF0.00039037911854660623
aF-0.0011341305225265465
aF-0.0002783569740951968
aF-0.00047497780054250546
aF7.349142363870984e-05
aF0.00014238068807984901
aF-0.00020416911480077487
aF-0.0002675342104609953
aF-0.00011472896457175589
aF0.00015119775895699333
aF-0.00013287020666744107
aa(lp101
F4.737260330787648e-05
aF0.0024753156192148665
aF2.1121963183348695e-05
aF0.41500931940500224
aF0.2331096330141126
aF1.0
aF0.0009146023820256618
aF0.0007364243868109104
aF-0.00040595097141922655
aF-0.0005028519486215535
aF0.00043498217555165523
aF0.000412050752230259
aF-0.00011455327245118714
aF-9.176576720025757e-05
aF-0.0001963274499917594
aF-0.0001175755104028116
aF0.0004175589876857361
aF-7.051503772571667e-05
aa(lp102
F3.4984286710549314e-05
aF0.002213684120782441
aF2.020278863289841e-05
aF0.4143193729246995
aF0.15198616274319013
aF1.0
aF0.003221728965450314
aF0.0008753460973272363
aF-0.0001449916901835811
aF7.696651767638165e-06
aF0.00016389284870456104
aF0.00032614774564376396
aF-0.00026011470130046685
aF-0.00026348546128270836
aF0.0003143697097056134
aF-3.012986889158581e-05
aF0.0002740390876579707
aF8.527255740830699e-05
aa(lp103
F3.0041714147577072e-05
aF0.003386329373724685
aF3.498916448417177e-05
aF0.5458259170143916
aF0.0775135921988065
aF1.0
aF0.0005753000765085247
aF0.0015650300927673288
aF-0.000719641283972151
aF-0.00026853111825113
aF2.0881908991862516e-05
aF0.0001719808465172507
aF0.00012169346894051462
aF-0.0002144690552955974
aF0.00020815754749444428
aF0.0002260819921691531
aF8.960336312348377e-05
aF-1.4364624242260744e-05
aa(lp104
F1.592635039297978e-05
aF0.0015792146788023975
aF2.485558355716735e-05
aF0.49673960292176544
aF0.021635623652495845
aF1.0
aF0.0009399757443012398
aF1.3017323817935623e-05
aF0.00013395568858884743
aF9.13283578099346e-05
aF1.3366039571628084e-05
aF2.074214080848167e-05
aF9.681773229215933e-05
aF0.00011795306261278887
aF9.016500053051944e-05
aF4.088800978595393e-05
aF0.00011342490477257922
aF0.00010338547317907506
aa(lp105
F2.1110772303043474e-05
aF0.0020515394912043387
aF2.3406471240466566e-05
aF0.48105651822795065
aF0.054307438648890094
aF1.0
aF0.0011391265419721764
aF-9.495542050352752e-06
aF6.326132984156545e-06
aF-1.9621056791926072e-05
aF2.0412626204584873e-05
aF-6.513636311576399e-06
aF-8.296635719907204e-05
aF-5.962914679041121e-05
aF1.852819582239474e-05
aF1.0127785260237402e-05
aF6.634212646526324e-06
aF3.614978554411944e-05
aa(lp106
F3.21973887875523e-05
aF0.0034291016519893973
aF2.699147310926686e-05
aF0.471147394094019
aF0.13963707307713932
aF1.0
aF0.0029515802215147225
aF0.00037487601390699465
aF0.00011124762618923745
aF6.841385480724769e-05
aF0.00016351433976339585
aF3.9627249933058663e-05
aF1.1816764549232756e-05
aF3.12164493187e-05
aF-5.734556662070223e-05
aF-0.0001312135749651278
aF6.299493100066019e-05
aF3.7406192925884524e-05
aa(lp107
F3.0067404338207822e-05
aF0.0027882776511170774
aF2.78078639654576e-05
aF0.43054490276039226
aF0.09348221332126667
aF1.0
aF0.00011587155458488839
aF0.0005261615928173891
aF-0.00013369919052936944
aF-0.00022996141961827675
aF0.00023111304034937957
aF2.3853689451674388e-05
aF-0.00044521755738413047
aF-0.0001384936659554619
aF0.0003140497620304461
aF-0.0001424866666061394
aF-0.00016122105581505084
aF0.0001209086007367778
aa(lp108
F3.634097486069988e-05
aF0.0027082340383954243
aF2.565524333702212e-05
aF0.43629957880012493
aF0.17320412404258215
aF1.0
aF0.00244294203249721
aF0.00017759733761024059
aF-0.00019586911913590648
aF-4.131613042373132e-05
aF0.00026608248355564453
aF0.0002598012958042792
aF7.677717595609414e-05
aF-0.00010904050575904201
aF-3.824173514424469e-05
aF-8.81665181134902e-05
aF-6.502660287891355e-05
aF-1.0481087976017517e-05
aa(lp109
F3.927494845780101e-05
aF0.0026637154999465127
aF2.1619490806102822e-05
aF0.4539216310492722
aF0.1449888151173475
aF1.0
aF0.0015943681029292624
aF0.00025942065052336495
aF0.00010479316178272384
aF-0.00014622163800995453
aF-0.00016896863576963293
aF0.00031295696790336556
aF0.0003569727184254743
aF0.00023216569660309877
aF4.944443827401753e-05
aF-0.00032295833365655896
aF0.00011580571201431686
aF0.000242183345035779
aa(lp110
F1.9879212661854856e-05
aF0.002223942310046501
aF3.469133410280398e-05
aF0.45781164643606537
aF0.05025436723884715
aF1.0
aF0.00036323057878234044
aF0.0005602667883472554
aF-0.00018929374438122538
aF-2.1772898418411014e-05
aF0.00013025678554186306
aF0.00025358013292423975
aF-0.00021555705256296167
aF0.00013499071002099063
aF3.973243148782017e-05
aF8.205648089617656e-05
aF0.00014943951719174214
aF0.0001998010546381212
aa(lp111
F2.1706861976305276e-05
aF0.0011965977220167825
aF2.155835138652895e-05
aF0.3960115565199594
aF0.05612362547360161
aF1.0
aF0.0015812379332421913
aF0.0002811797980102028
aF5.0446448855552374e-05
aF1.5808230290874835e-05
aF4.6668196762171295e-05
aF8.076420980379292e-05
aF0.00013096148772179274
aF-4.040948196836037e-05
aF2.410472093013537e-05
aF2.9316801512309094e-05
aF9.531779261536417e-05
aF5.5826670357387395e-05
aa(lp112
F2.2037832656252113e-05
aF0.001956237693662936
aF2.575757772447386e-05
aF0.40593970737645974
aF0.06770762110590069
aF1.0
aF0.0013557741216030685
aF0.000863975366555801
aF-0.00040337683515912273
aF-6.904000402067595e-05
aF3.990773430783817e-05
aF6.375916240385781e-07
aF0.00029556546330426905
aF8.3010668094976e-05
aF-0.00015021069410890407
aF0.00013539570136707522
aF0.00017503338878593723
aF0.00023965676785598164
aa(lp113
F3.1761137796610287e-05
aF0.0030071341768376876
aF3.465589472429987e-05
aF0.5018044317007457
aF0.09471860654762371
aF1.0
aF0.002464622249079814
aF0.0006893924648442519
aF-0.0008505922565738443
aF-8.748467286755472e-06
aF0.000312721844829504
aF0.00020780613155385372
aF0.00011250258123661929
aF-0.00018602785878157654
aF-0.0003469900188647796
aF0.00033042798074472014
aF-4.1917219264652555e-05
aF6.104556290556385e-05
aa(lp114
F3.159674220897862e-05
aF0.0022414629662543045
aF1.6375785447376564e-05
aF0.3590772678846082
aF0.13975736748388004
aF1.0
aF0.0021565925504755177
aF0.00026338626954323
aF-9.949895446823411e-06
aF-0.00010703603705817432
aF-8.168694138559485e-05
aF2.561687602012005e-06
aF-3.160940315148033e-05
aF0.0001596353966860323
aF6.65280731221194e-05
aF-3.3562579983864905e-05
aF3.013094437944479e-05
aF-4.2090911342938924e-05
aa(lp115
F3.270465389614659e-05
aF0.002334849643739533
aF2.0637620142737254e-05
aF0.38381682365921876
aF0.10679328918347651
aF1.0
aF0.0022897836444389624
aF0.00017112163100458858
aF0.00016369544828396024
aF0.0001644956804527416
aF0.00011778118529619159
aF-5.022726638036164e-06
aF-4.442963032312233e-05
aF1.4911467097900023e-05
aF0.00011018396804456459
aF-3.9166101882203273e-05
aF3.2083592938832645e-06
aF0.00019072544159405333
aa(lp116
F2.2983879783894862e-05
aF0.0017307278117145927
aF1.4188923434222357e-05
aF0.4807720877715787
aF0.07978263781226314
aF1.0
aF0.002910579547378674
aF-2.8807836263430463e-05
aF5.177061622029597e-05
aF1.3826885924382409e-05
aF-7.252359961081122e-05
aF8.953157293122886e-05
aF4.688035272316664e-05
aF-3.580826355591198e-05
aF9.32072547783429e-06
aF-1.6481570450349667e-05
aF1.3071113355951876e-05
aF-9.350150732443733e-05
aa(lp117
F3.6765960049371454e-05
aF0.0030753263315724806
aF5.06209412604078e-05
aF0.6175586181455068
aF0.07369650548914299
aF1.0
aF0.00022508780221636184
aF0.0006032441639001331
aF-0.001321361566411646
aF-0.00036452533102000875
aF-0.0002772119159208736
aF-6.285059497118611e-05
aF0.0003454867226774168
aF-0.00012072699245326608
aF0.00022885662712220466
aF0.00017206359460759894
aF0.00021081776429611337
aF0.00040115597367621555
aa(lp118
F2.175564091644779e-05
aF0.0015784681570983226
aF2.514207244564266e-05
aF0.41257396835871796
aF0.05254155531690086
aF1.0
aF0.0008463912704159108
aF0.0008648010150512117
aF-0.0001274891794223604
aF-0.00022857305179792674
aF0.0001986672858668232
aF0.0001818315237367596
aF0.00011561433818044698
aF7.32314718461705e-05
aF-0.00011623316408071696
aF-0.00019522520102118832
aF5.20691296359056e-05
aF0.0001083996286829577
aa(lp119
F6.096298512524438e-05
aF0.004479511596337286
aF5.3262250724097516e-05
aF0.6249184896282787
aF0.2158752982115476
aF1.0
aF0.0026802197894553073
aF-0.0004917244437029279
aF0.00020733667650895952
aF0.0004306053988604074
aF-0.00013242666005987817
aF0.00018617610798295507
aF-0.000359008368503783
aF-0.0002734823654975651
aF-0.00043625861493457274
aF-0.00032735930215639945
aF-0.0001765358451192198
aF-0.00011488004956803613
aa(lp120
F2.5185676856608305e-05
aF0.0020962778793549176
aF2.5950248127685005e-05
aF0.3849420782910653
aF0.09771636412922219
aF1.0
aF0.0020092283882234604
aF-6.821074371373282e-05
aF-0.000455934315121624
aF0.0001796890725987403
aF-2.7803612942054044e-05
aF-8.354988549434724e-05
aF0.0002197973150495787
aF0.00011917905639711408
aF-1.2974318876748489e-05
aF-0.00018043119378733519
aF5.986795144025702e-05
aF0.00018097580220366167
aa(lp121
F2.592934886394828e-05
aF0.0020146002908323214
aF1.4245337684035919e-05
aF0.4307259149648108
aF0.14921059742473483
aF1.0
aF0.002765566665757906
aF0.0003798823774153247
aF0.00019183552087685452
aF-4.722554188297464e-05
aF-0.00018716684254981836
aF-6.628069627513746e-05
aF0.00017228466437449458
aF0.00013114448546730056
aF-0.000129269620754238
aF-0.0001463413795065946
aF-8.976645162409005e-05
aF0.00017045416946432441
aa(lp122
F5.076063888778702e-05
aF0.003915569252838196
aF4.881437805132623e-05
aF0.6024560853020702
aF0.18011393066269143
aF1.0
aF-0.00018170465273647068
aF0.0008034604197959615
aF-0.0007105375682487521
aF0.0003465226666937844
aF-0.00023504554963586018
aF0.0003694987370378984
aF0.00017500892285730605
aF-0.0003741297779243586
aF0.00014167733597644018
aF-0.00014175881371200096
aF-6.773012510494392e-05
aF0.0004169557643116132
aa(lp123
F3.337235819242068e-05
aF0.002771797999432074
aF2.2437751279377978e-05
aF0.4534668176769898
aF0.227468244998943
aF1.0
aF0.0014746459024723387
aF0.000876732977977867
aF0.0001978000980131404
aF-1.6615028573909836e-05
aF0.0003871418020237585
aF0.0002633860889728616
aF0.00020970841886851517
aF-3.81578481397585e-05
aF2.5604013843638005e-05
aF-0.00011981475492970095
aF-4.046473402226693e-06
aF5.1603086505185346e-05
aa(lp124
F2.65985519657435e-05
aF0.003606906254295205
aF2.5336395878550186e-05
aF0.4599784792168105
aF0.18315513979048914
aF1.0
aF0.00241002147122812
aF0.0006404626805419405
aF0.00010619265945707409
aF0.00011100835702309302
aF5.059366607043076e-05
aF0.0002409951237508119
aF3.6876489265379605e-05
aF-3.3866636149236265e-05
aF4.975273858414049e-06
aF6.082143508168767e-06
aF0.00011910628973789517
aF0.00010365757904113001
aa(lp125
F3.137045894179806e-05
aF0.0027601509894988057
aF2.2885710499488777e-05
aF0.4634712975941905
aF0.20929461743245212
aF1.0
aF0.0028916216342207645
aF-0.00030751848372607363
aF2.6560699786488694e-05
aF-4.941167683024678e-05
aF8.002627676163115e-05
aF0.00015718927111976798
aF-0.00015833960399636547
aF7.857232114358902e-05
aF-0.00016297835540456828
aF0.0002012941834435222
aF0.00011477403161999729
aF6.029998552973944e-05
aa(lp126
F2.0931407127968183e-05
aF0.0018280362193529986
aF2.184572426850541e-05
aF0.5207429848879181
aF0.08717479651300591
aF1.0
aF0.0018782760758070073
aF0.0006700463040379323
aF-1.6438264437221158e-05
aF0.00021230913289774393
aF-4.813117485923172e-06
aF0.000147096167898381
aF0.0002759034469510484
aF-0.00015065851790643548
aF4.560291466053786e-05
aF-0.00015224430150326439
aF-0.00017189396413472036
aF0.0003066298689835397
aa(lp127
F2.158901087955309e-05
aF0.0028795195572089765
aF1.6718221563844557e-05
aF0.5268840084469469
aF0.1419488335102412
aF1.0
aF0.004042186975283555
aF8.325907512889148e-05
aF4.521528448534127e-05
aF5.20714083105462e-05
aF-1.8395622556169796e-05
aF2.043069019832546e-05
aF3.1886579740285786e-05
aF1.0364998260872869e-05
aF-2.0118589398432498e-05
aF-2.5567676373126863e-05
aF1.0914822596573481e-05
aF-3.244961390781642e-05
aa(lp128
F2.0780543918821713e-05
aF0.0020754767839222315
aF3.151156394699202e-05
aF0.43584641275716
aF0.07590376199659966
aF1.0
aF0.0006030730888895328
aF-1.2260457812558606e-05
aF-0.0002863555163725754
aF-0.0002060915692983948
aF2.932633093757894e-05
aF-0.00018910932719163196
aF-4.912717237643193e-05
aF5.131289416698916e-05
aF0.00010198246990163617
aF0.00029344623122648153
aF0.0003325608125160712
aF0.00016642573251109228
aa(lp129
F3.549217510335172e-05
aF0.003951562960271534
aF5.680157719747847e-05
aF0.570094338766168
aF0.17016039330296373
aF1.0
aF0.0017063697474909484
aF0.00046823807518028707
aF0.0007082160411817944
aF0.000504300143023182
aF0.0003119829249927883
aF-7.137639049255646e-05
aF-4.3665789880744155e-05
aF-0.00017247179747441056
aF-4.0402911980820625e-05
aF-0.00018943530008654722
aF0.00026122568672181404
aF0.0003352192909792728
aa(lp130
F2.7526359156812374e-05
aF0.002307276637583349
aF3.8204206223553115e-05
aF0.4455517315878129
aF0.08442344064729022
aF1.0
aF0.0009330022813127936
aF0.00020350229186191448
aF-0.00029411629391234154
aF-0.0001625721979638362
aF0.00022173447159354814
aF0.00026079924889296346
aF7.098812733805523e-05
aF-0.0001421722373111213
aF-0.00014580577639110979
aF0.0001258559748744968
aF-4.430316463172371e-05
aF-0.00018775103354882686
aa(lp131
F3.938286979738588e-05
aF0.002643225583887179
aF2.0907498798296298e-05
aF0.4135627909837096
aF0.28913328235420427
aF1.0
aF0.0018414080793560837
aF0.0005088251076236038
aF-0.00041904998407669964
aF-0.0002218530382614413
aF0.00014330679918394775
aF2.0969642425969205e-05
aF0.00011223140500032022
aF9.295436143665639e-05
aF-0.00010368938438373429
aF2.664399733969293e-05
aF-8.305536624706093e-05
aF3.812146136371681e-05
aa(lp132
F3.197685993485575e-05
aF0.00211825940528848
aF2.0265627086949245e-05
aF0.3874509898088679
aF0.15614398059136847
aF1.0
aF0.0020640239943451114
aF0.0004955495386656633
aF-0.00017749612126596702
aF4.460019260244509e-05
aF0.00026717066228802786
aF-0.00036851404903325116
aF0.00027046920002442727
aF0.00014707914072276075
aF3.944362798336082e-05
aF-3.0280316786444112e-06
aF-9.045280188866034e-05
aF0.00012383073980605259
aa(lp133
F3.4465809894749236e-05
aF0.0025777757316312296
aF2.0231512169339413e-05
aF0.47041450550450414
aF0.2175412263494977
aF1.0
aF0.0033141540981103702
aF3.8175970166809195e-06
aF-3.935260457445855e-05
aF-5.745401721233921e-05
aF-0.0001007608789534114
aF6.969828302784597e-05
aF0.00010292337854667601
aF4.874276413357867e-05
aF1.163828861946265e-05
aF3.008943996322935e-05
aF5.8460265346365044e-05
aF-3.185637941273747e-06
aa(lp134
F2.2199221827562923e-05
aF0.0023853596337050126
aF3.461464800767041e-05
aF0.48908179633101206
aF0.05443295593698837
aF1.0
aF-0.00017842399297589406
aF0.000220124407899743
aF-0.0004977163520963483
aF-0.00017835235079059495
aF0.0002066529169613627
aF0.00027477150275273955
aF-0.00011307408582762582
aF-0.00015945135161766553
aF-8.952964284302763e-05
aF0.0003215625504008223
aF-0.000101010093047591
aF-0.0005015277773527114
aa(lp135
F3.698614437739e-05
aF0.0028947534834990185
aF3.281342239901049e-05
aF0.43564015858049293
aF0.20581719282468808
aF1.0
aF0.0022713540363328982
aF0.0001262891704297389
aF7.627550458387158e-05
aF7.056605579359669e-05
aF6.327280368651706e-05
aF-9.114476648888908e-06
aF-1.865717718618173e-05
aF-3.512213572435976e-05
aF-5.891347309883232e-05
aF-2.7346560226754315e-05
aF5.87542486636268e-05
aF2.0237889458461558e-05
aa(lp136
F3.390366052778005e-05
aF0.0037763478531589677
aF2.653632178333453e-05
aF0.4546476036137343
aF0.2622830871840903
aF1.0
aF0.0016619366981279577
aF0.00025901423432919213
aF-0.0004039476308926564
aF-0.0003822518722100763
aF-0.0002097610660826794
aF-8.372487417995043e-05
aF8.032235496919954e-05
aF-7.729842525150194e-05
aF7.27543882222232e-05
aF-0.00014283579615781704
aF8.325892883429962e-05
aF0.0001627831293923311
aa(lp137
F3.949776605644651e-05
aF0.003300538677730827
aF3.453067514769096e-05
aF0.438074349223086
aF0.23951533686275864
aF1.0
aF0.0010570030901593884
aF0.0005907769929148185
aF-0.00010034878759423044
aF-0.0002465360605187077
aF6.423424085245786e-05
aF0.0002832130595733617
aF-7.49410894609958e-05
aF-4.7467542444698925e-05
aF-7.4811056750147305e-06
aF-3.987147396376021e-05
aF8.221333042334216e-05
aF-0.00018353958454602124
aa(lp138
F2.6950414909438893e-05
aF0.002230077824231031
aF2.609902521596635e-05
aF0.3811914399144779
aF0.1379599684147311
aF1.0
aF0.001976024717576105
aF-0.0002253440177116226
aF0.00012932855590829697
aF-0.0003400954400193011
aF0.0003511613522951079
aF0.00012107595622139616
aF0.0001465423442169547
aF0.00021107624513274587
aF3.5624981705647536e-05
aF0.00015113413728843115
aF2.0806229483520406e-05
aF-0.00020946538809893386
aa(lp139
F3.382486327615531e-05
aF0.0024261467586723403
aF2.4167200191133616e-05
aF0.39029611103400025
aF0.22400484359806805
aF1.0
aF0.0020752497242286262
aF0.00025496117990383564
aF-0.00014263178457147148
aF-0.00024024159479292103
aF0.00013506041641103708
aF0.0002050160517081382
aF0.00022069450539932863
aF0.00018507782555529038
aF1.2516563035562855e-05
aF-2.1790053463472456e-05
aF-0.00019177711563328167
aF-1.4696873099856243e-05
aa(lp140
F3.3698059806643404e-05
aF0.003088336652449433
aF3.310933598535835e-05
aF0.46046639111909704
aF0.1370612842904827
aF1.0
aF0.0013513380355408208
aF7.659793762211427e-05
aF-0.0003638188448774857
aF-1.8858195434536563e-05
aF0.000236837272094704
aF0.00017130988515339594
aF6.916983426576545e-05
aF-0.00023733860908381862
aF-0.00014941188709960285
aF0.00025263474843935987
aF6.461084509293807e-05
aF-3.398692759032447e-05
aa(lp141
F4.2344016594316693e-05
aF0.004369423149720432
aF4.221883335497085e-05
aF0.5180741104663218
aF0.22120326182901237
aF1.0
aF0.0029350154856005034
aF0.000951918768551812
aF-0.00038554143673447
aF-0.0006440185424983812
aF-4.7090010496053453e-05
aF-5.069616799908982e-05
aF0.000267493599992929
aF-7.629054072792617e-05
aF-0.00017439341685080402
aF-0.00026446767251360687
aF6.291776691589197e-05
aF0.00027208477141103045
aa(lp142
F2.8303876542812302e-05
aF0.0027474231900069474
aF1.3769105587090066e-05
aF0.34326687287754415
aF0.22649650288678352
aF1.0
aF0.0031567837185651907
aF0.00010685434421154062
aF2.92288964580853e-05
aF-1.9574622073354857e-06
aF-4.488191105646055e-06
aF1.071573054463676e-06
aF3.3428926735324994e-05
aF4.686171885379689e-06
aF1.4453619969079677e-05
aF-4.6396099500094745e-07
aF2.896100516240109e-07
aF7.940205497031582e-06
aa(lp143
F4.424287961250444e-05
aF0.0030727937396692138
aF2.0221495394927823e-05
aF0.37558808749445866
aF0.32190906229052496
aF1.0
aF0.002070591127190565
aF0.0007020165680426333
aF-0.0002790747999643726
aF-3.230040148757777e-05
aF-6.304147640968253e-05
aF7.909945788640712e-05
aF0.0001679482965919884
aF6.799626360645783e-05
aF-9.78878304069598e-05
aF0.00016160097786040316
aF0.00027797962502595534
aF0.00020847271156153394
aa(lp144
F5.9079975327189964e-05
aF0.005371858894895893
aF4.307973727830155e-05
aF0.5844792711591759
aF0.2932676920332229
aF1.0
aF0.0027320432779405187
aF-0.00011128808741948198
aF-0.0004020094596543317
aF0.0009238324373765577
aF0.0007003051698148452
aF0.00021974188965606835
aF6.716382769967501e-05
aF5.483341470795984e-05
aF-0.00011196306559899393
aF-0.00012202303672296509
aF-9.623721939294822e-05
aF-0.00017424577901638326
aa(lp145
F2.9694513557035697e-05
aF0.0025559914633492896
aF1.839893029622142e-05
aF0.4070251103602317
aF0.20889332374650824
aF1.0
aF0.0022619293246567054
aF0.0003831134631428923
aF0.00020328528334485454
aF5.079544624037017e-07
aF0.00019381269192565644
aF0.00023194817558746248
aF8.691884128984353e-05
aF-0.00019882825801635713
aF-0.00013254019248672648
aF-0.00010269059224348031
aF0.0001509380929094542
aF5.9116758086686356e-05
aa(lp146
F3.133318295423283e-05
aF0.0027727374886213595
aF2.212949211723884e-05
aF0.4080341519750275
aF0.2594635853140558
aF1.0
aF0.0025453164527490147
aF0.0006438111989761084
aF-0.0004586657719536311
aF-0.00020304403517132683
aF6.78379044443305e-05
aF0.00020928368631114642
aF0.0004456054983475605
aF6.954489534003281e-05
aF-0.00013451281348968565
aF1.1880927601473246e-05
aF-0.000171407268653093
aF0.0005782383451612911
aa(lp147
F2.942228302765017e-05
aF0.003790796757462391
aF3.558728181387185e-05
aF0.509357288341739
aF0.13913876890124716
aF1.0
aF0.0023812476371830784
aF0.00039591541891688343
aF0.00010638757667764294
aF-7.068070351777087e-06
aF0.00010455476783322416
aF-0.00030966862864886347
aF-0.00012331957653857729
aF-0.0004884497861677426
aF-0.00010577638669617649
aF0.00013832630255840558
aF-0.00023017998414853844
aF4.3934054125252704e-05
aa(lp148
F3.937913326344174e-05
aF0.0029950159386479156
aF1.47403368752786e-05
aF0.36655621544583045
aF0.3699180978496935
aF1.0
aF0.004305310311513975
aF2.643653131646364e-05
aF6.445532665467581e-05
aF0.00012539445795917901
aF0.00014331064395187366
aF0.00014834893609955255
aF2.302712032528064e-05
aF-6.514663443995592e-05
aF2.5492733757869203e-06
aF0.00016033859068143575
aF0.00011338941917126143
aF-9.076050609537593e-05
aa(lp149
F5.3105695953477194e-05
aF0.003916292369332391
aF2.2201904902745746e-05
aF0.3743100922492298
aF0.5832300972352441
aF1.0
aF0.0027397457908679523
aF0.0012498015568913018
aF-7.819456898907658e-07
aF-0.00011006672543260769
aF0.00014568417467288066
aF0.00014394881987804672
aF8.590183067636297e-05
aF-0.00011692545640203611
aF7.967322177213658e-05
aF-0.0004111897506431296
aF8.71669097297032e-05
aF0.0005032785701914649
aa(lp150
F3.3709260147104866e-05
aF0.002874743878608838
aF1.3392838794489177e-05
aF0.43901623475362467
aF0.41580656780512715
aF1.0
aF0.003990502773514752
aF0.0010809784668503798
aF0.00033297695049120394
aF-5.99104975392405e-06
aF-3.003794928213573e-05
aF-0.00014723129411445046
aF0.00016144247162160392
aF0.00018665799440978977
aF-0.00023704238246303758
aF0.00024759584009899425
aF6.175620564731304e-05
aF-9.954392954158482e-05
aa(lp151
F4.0344689561180724e-05
aF0.004735912004558461
aF4.983832605546112e-05
aF0.5922183592912892
aF0.2032969484693977
aF1.0
aF0.0014991105888334385
aF-0.0006883428093188153
aF0.0001446596704265808
aF0.0002205724022015076
aF-2.643964860621128e-05
aF-0.00010626571870911993
aF4.796636860091152e-05
aF-0.00011814549590769603
aF-0.0003090429040157078
aF3.645416285733985e-05
aF-0.0001401286224126611
aF2.9167831670095083e-05
aa(lp152
F3.6931576405980755e-05
aF0.0028454928647547967
aF2.034486601727967e-05
aF0.43272152955146015
aF0.25097916669674575
aF1.0
aF0.002318296394621149
aF0.00045781555346892947
aF-5.544651369218982e-05
aF1.2161367405173182e-05
aF-8.2704427111167e-06
aF5.091282626109889e-05
aF0.00013831094899137333
aF-3.834765039529942e-05
aF-0.00014253180641490368
aF-6.461541160404751e-05
aF1.1295300881037918e-06
aF9.966741093049386e-05
aa(lp153
F4.337419804587843e-05
aF0.0031316243954257975
aF2.386860752975487e-05
aF0.42172619873650735
aF0.3191253020445031
aF1.0
aF0.003039361888671299
aF0.0003305771159133106
aF-0.0002614157182554513
aF-0.00019176063406379205
aF0.00014561380569243657
aF0.00017483840963858233
aF0.0001402194226540689
aF4.473627591058049e-05
aF-2.2870848402454656e-05
aF-0.00020717528808514166
aF6.47904805598574e-05
aF0.00028187894782516097
aa(lp154
F3.535930024552974e-05
aF0.003601572532987445
aF3.570360060257071e-05
aF0.5215141960290997
aF0.144802882058992
aF1.0
aF0.00237666506117737
aF0.0016805898341162244
aF-0.0002931346406475234
aF-0.0001369474482642848
aF0.00013651850956104358
aF0.00026149420709672955
aF3.340271441195952e-05
aF-0.0003368343712734594
aF-7.946609259353568e-05
aF0.00017948281345911906
aF0.0001794343454051739
aF-0.00035622146849444315
aa(lp155
F5.187383855394124e-05
aF0.005021372673224699
aF2.9858830302925645e-05
aF0.5024631275777744
aF0.3116212671183701
aF1.0
aF0.002541631864562086
aF0.0016249608906247564
aF-0.0005557468339338902
aF-0.00011786534757020528
aF0.00027073197411629687
aF-6.907812605574492e-05
aF0.0003195718604812849
aF0.00025741034710358916
aF-0.000310717340770334
aF-0.00024469544491104205
aF-0.00023429403935346628
aF0.00033623752860621243
aa(lp156
F4.005545617415745e-05
aF0.002452520678581397
aF1.832114315938817e-05
aF0.3928839604428522
aF0.24644028667308457
aF1.0
aF0.0032546639477632516
aF0.00028494465993648564
aF-3.614197492533592e-05
aF-0.00041981230282297686
aF-0.0002163134601714695
aF6.036142610390714e-05
aF8.688767531695822e-05
aF-5.178585811774251e-05
aF-3.4016129115830347e-05
aF0.0001071142608075253
aF6.0336610237765674e-05
aF-8.40550597608307e-05
aa(lp157
F4.175041211350469e-05
aF0.002689045695119612
aF2.230954398268644e-05
aF0.392732715528932
aF0.2695783878782382
aF1.0
aF0.002278790931174104
aF0.0009170587982043868
aF-0.00013647568804414458
aF-0.0002521030243941103
aF0.00020140889026285774
aF4.9353103772678954e-05
aF0.00035084323953718624
aF-4.8286084493790225e-05
aF0.00010142974031081709
aF0.00012529926428917867
aF2.5085151439330122e-05
aF1.1718408001250898e-05
aa(lp158
F4.868915960785995e-05
aF0.00432533974222321
aF5.197649642881249e-05
aF0.6257998088216826
aF0.18909799070370456
aF1.0
aF-0.00047238690606030685
aF0.001019982348050116
aF-0.000743243214160211
aF0.00016374129568067205
aF1.9461237379681726e-05
aF-7.192390630082029e-05
aF-0.00022428595755075582
aF0.0002278206554825049
aF0.00010167319114160797
aF-0.0001335040083713029
aF0.00015263640737974468
aF0.00011009171705547992
aa(lp159
F3.97505690581645e-05
aF0.0035793780519457613
aF3.2334129819606344e-05
aF0.49767016575537787
aF0.18353674709177328
aF1.0
aF0.002949393636653261
aF0.00017422896774759193
aF-0.0001541262320428432
aF-0.00013892849835538403
aF-3.6280715209321745e-07
aF8.427554002716281e-05
aF0.0001241412189889802
aF-7.820341959919373e-05
aF-4.002844730599171e-05
aF0.00019791380986668798
aF5.797219781763115e-05
aF-0.000144486370904642
aa(lp160
F4.20926038262298e-05
aF0.003600268579073631
aF3.433994032095963e-05
aF0.541284236419152
aF0.1433046296364141
aF1.0
aF0.0014641999098097146
aF0.0007380597270320614
aF-7.845349608637173e-06
aF-0.000807505278009643
aF0.0001242308758413898
aF0.000468866195359485
aF0.00026394510938755904
aF-5.3762728812472e-05
aF0.00037385900886068246
aF0.00032614880020154257
aF-0.0001687689208785633
aF0.00017552516715892673
aa(lp161
F4.8534225725189164e-05
aF0.0025952541917090514
aF1.3785032436486463e-05
aF0.38100142391673253
aF0.320169545000643
aF1.0
aF0.0018261647565993872
aF0.000909062752076708
aF-0.00021505300851046787
aF-0.00047580668050155116
aF0.00011485503178498604
aF9.955170022329097e-05
aF0.0004312936028246829
aF0.00013421737598126148
aF-8.142490030450544e-05
aF-0.00017523450923859863
aF-0.00025953946629645564
aF1.3450507851391884e-05
aa(lp162
F4.8511436901943663e-05
aF0.003350718494714472
aF2.31268664916847e-05
aF0.40969514422665526
aF0.27839968542948484
aF1.0
aF0.002367270523560737
aF0.0011217544565617185
aF-0.00026366011984690885
aF0.00012598438173980407
aF0.00030194304056843386
aF0.0002893322450691226
aF6.353453053808405e-05
aF9.376476834435864e-05
aF-0.0002579693095891006
aF0.000405082599358765
aF0.00016778123204944746
aF7.320579766707923e-05
aa(lp163
F5.965752346740279e-05
aF0.00521182385414144
aF3.7627728344503426e-05
aF0.5742400926538181
aF0.25527935535987606
aF1.0
aF0.0005293787816175093
aF0.000592572159410989
aF-0.0012040033867865105
aF-0.00019043385827128553
aF0.0007484542349389337
aF0.0007724018062090115
aF-0.00010898294052194088
aF0.00013759991022476134
aF0.00036561503526081333
aF0.00013158424992511697
aF6.527122528946827e-05
aF0.00042235983449012183
aa(lp164
F3.614712657652086e-05
aF0.0037367274779636778
aF4.4097779474308824e-05
aF0.6027681811013652
aF0.11603382521092595
aF1.0
aF0.0002893043767303549
aF0.0004959583024848046
aF-0.00023955706289169158
aF0.00014599340688412627
aF0.0008321837918753074
aF0.00020677867413009806
aF-0.0005079755102479311
aF-8.740750307090522e-05
aF0.0004243266648036452
aF-0.00027424384462031935
aF0.00012413351912731678
aF0.0005466142022123611
aa(lp165
F2.4972690442321057e-05
aF0.0019502956098406232
aF2.4451456965066654e-05
aF0.4651437594138923
aF0.06928001335946164
aF1.0
aF0.0008867190585635655
aF0.00021332630911813868
aF9.27205339941619e-05
aF-0.00011609689616171882
aF1.1085342434373573e-06
aF0.00023761341021813565
aF9.154250994193769e-05
aF8.312063645499403e-05
aF-9.642418318569285e-05
aF9.584881570142007e-05
aF7.245280119626717e-05
aF-6.064132581692525e-05
aa(lp166
F2.768492841909873e-05
aF0.0024325016127452856
aF3.010612986271931e-05
aF0.4292090949676028
aF0.06967484965387565
aF1.0
aF0.0007028862438452717
aF-0.00010805006063352298
aF0.0002356962535125541
aF-0.00015170224090794667
aF0.0005062853201930977
aF-1.1965218035032998e-05
aF1.1600856603866856e-05
aF-5.18500113515687e-05
aF-0.00015855110611026605
aF0.00018454220595769856
aF0.00020717533579621785
aF-8.617751829235567e-05
aa(lp167
F2.3750916518255513e-05
aF0.0030469736870584315
aF2.5311417475698646e-05
aF0.5059594213124308
aF0.10170055199860634
aF1.0
aF0.0011878919602543723
aF0.0002778193986258316
aF0.00031878739686237153
aF-0.00041234975041288836
aF0.00017259778955490472
aF-3.339279987204026e-05
aF0.00014342244334535818
aF0.00016712148083284752
aF-0.00029415551312458394
aF0.0001172026429592797
aF-6.347501391841983e-05
aF6.747991144105445e-05
aa(lp168
F3.0788420722209333e-05
aF0.0019497000178995297
aF2.3987205024070735e-05
aF0.42218652879571394
aF0.08263162840425164
aF1.0
aF0.0007067946464541712
aF0.0009526928565971357
aF-0.00020995693448707867
aF-0.0001724143433497567
aF0.00010208550646336266
aF-0.00011007942940227082
aF-1.8076951214509687e-05
aF0.0004194714402126271
aF0.00020765780284561964
aF3.2769193767298076e-05
aF-9.480939729253358e-05
aF4.255986792487153e-05
aa(lp169
F2.5247359657298535e-05
aF0.0024192741164293634
aF3.4780008297443525e-05
aF0.49592331920442095
aF0.0513345253923205
aF1.0
aF0.00016966349299651695
aF0.0001514403774583506
aF-0.00012041711002524302
aF0.000278587204000479
aF0.00014273885202973512
aF-7.145729837007203e-05
aF-8.126544624619692e-05
aF-0.00020445507861842078
aF-8.731540930490807e-05
aF8.9626494148723e-05
aF-6.177540607038426e-05
aF-0.00024079678569812404
aa(lp170
F2.2016727176123946e-05
aF0.0025727703681820233
aF2.9369039144501506e-05
aF0.5092494338633642
aF0.04149741718493985
aF1.0
aF0.001294317756502664
aF-0.0002249410949233324
aF9.194992339078691e-05
aF8.605657595329282e-05
aF-0.00013588602423815098
aF0.0001915772532404084
aF-0.00023147690206216402
aF-2.8009446674635643e-05
aF-2.6638350790082788e-05
aF-0.00015822218881980323
aF7.072137469108464e-05
aF5.9837177622365414e-05
aa(lp171
F2.7986285350059228e-05
aF0.0019221333776602613
aF3.013841781206762e-05
aF0.44618019261490693
aF0.05991355829106554
aF1.0
aF0.0019081589450829402
aF0.0008937750893286251
aF-0.0006968195960214991
aF-0.0004186929898807598
aF-1.874207985928563e-05
aF0.000269417367821699
aF0.00025694937062976426
aF1.9196772776339434e-05
aF-0.00035863347779301974
aF8.198068859522642e-05
aF0.00019439662773263253
aF-7.78066126837806e-05
aa(lp172
F2.108006168678171e-05
aF0.0021565884517989824
aF2.795036821345817e-05
aF0.4472462274075885
aF0.06113602649835407
aF1.0
aF0.0007619253181164317
aF0.0004492427866507401
aF0.00016526773638591292
aF-0.00010818725709796276
aF-0.00012302865897659095
aF6.560465322185618e-05
aF0.00012976792758424355
aF0.00017792719804680368
aF0.00011030095869738951
aF1.0953532983388698e-05
aF-0.00015638805672040998
aF1.2787430997188215e-05
aa(lp173
F3.760993845405604e-05
aF0.003504893275888775
aF2.890554732185804e-05
aF0.519510314231646
aF0.10107623689032234
aF1.0
aF0.0010300205717739181
aF0.0008900060088222082
aF-0.0001621256908281568
aF5.860152068568068e-05
aF0.00020951473670187832
aF0.00016699709723973417
aF-7.729617724528555e-05
aF-0.00017992301876627176
aF-0.0001535565766009503
aF-4.003625777458504e-05
aF-3.378814380614149e-05
aF-1.718383749062687e-05
aa(lp174
F2.8904051222341025e-05
aF0.0019087658046736031
aF1.9331294720036775e-05
aF0.37186141700924824
aF0.09517632289631661
aF1.0
aF0.001291647464592396
aF0.0007446325323066854
aF2.7831809682720432e-05
aF-0.0003430732683600164
aF-0.00024920251847231875
aF0.0002374443504231172
aF0.00036278226416381406
aF0.00013404294877743413
aF0.0003173732982837803
aF-0.0002574703458281363
aF-0.00014112457947818634
aF0.00025971380290320276
aa(lp175
F2.711669598908129e-05
aF0.0014373355555044307
aF1.606542968597937e-05
aF0.3420516290401434
aF0.07700950350378559
aF1.0
aF0.002484034612646539
aF0.00021403439963466948
aF8.257197229118618e-05
aF3.485404126101245e-05
aF-1.3316465806655252e-05
aF-6.881514228589997e-05
aF2.7198539583971592e-05
aF-3.187292036486949e-05
aF-2.1229051179731764e-05
aF2.3051386425760402e-05
aF-2.432855921482934e-05
aF1.0516691545835684e-06
aa(lp176
F2.2180689784355402e-05
aF0.0018884558203579717
aF2.6331385864956123e-05
aF0.4187474288410851
aF0.08418541973468205
aF1.0
aF0.0018836433988980957
aF0.00046032905034974644
aF1.5044669576104054e-05
aF0.00020571021294593474
aF0.00016773307657963558
aF-9.223634243969866e-05
aF9.124982792869855e-05
aF-5.410291204885032e-05
aF0.00012843963127963728
aF-0.0001433240292023905
aF4.32474783654507e-05
aF-2.415062575948547e-06
aa(lp177
F2.3473015822813952e-05
aF0.002428567884010417
aF3.47521295731605e-05
aF0.5130198206303467
aF0.0515427262618941
aF1.0
aF-0.0007368905576100417
aF0.0003150403817120971
aF-0.00023753158337852043
aF-0.0002582739621284602
aF0.000231287554555503
aF-5.11166128048612e-05
aF0.0004291903758751451
aF9.241988560313256e-06
aF-0.00022730370708129696
aF-2.7898885719273354e-06
aF-8.280720400577783e-05
aF-0.00027157409579846596
aa(lp178
F2.6379618016313695e-05
aF0.0027696707140656375
aF3.7927895251047805e-05
aF0.5158896908964299
aF0.06491322858469721
aF1.0
aF0.0004915685104600517
aF0.0004688384244493887
aF-0.0001670976844568761
aF0.00043754594395986065
aF0.00023169817704700077
aF0.0002026024367422874
aF5.93940773799279e-05
aF-0.00010523705531967855
aF-5.886003199534453e-05
aF0.0002188427574677687
aF0.00010868106448271632
aF-7.941383693763266e-05
aa(lp179
F2.6167596442876068e-05
aF0.0021883182499333794
aF3.6524610206000974e-05
aF0.4606137067588968
aF0.05339966572708028
aF1.0
aF0.001023645827108225
aF0.00015755181500660064
aF-7.293745660459088e-05
aF-0.0003430882069649477
aF-2.345943576844055e-05
aF0.00042416348801771817
aF-5.790869166133268e-05
aF0.00018012992009537186
aF-0.00030700479754673513
aF0.0002484082789814104
aF-7.009052915757618e-05
aF0.00033239157419113227
aa(lp180
F1.5519189954358163e-05
aF0.0018598620383655994
aF2.8818988824662987e-05
aF0.4492608220704511
aF0.03969440548556797
aF1.0
aF0.00044506491509662874
aF0.0006208747820307233
aF-0.0004138636758271199
aF-0.00018654044752805762
aF0.00024537770961764656
aF0.00029234966420439587
aF2.3097831827648736e-05
aF-3.363825705041438e-05
aF-0.00037706841201561356
aF0.0001609381450005555
aF0.00014118587964992186
aF-0.0002843773901194388
aa(lp181
F2.9411140837941942e-05
aF0.0023415059479156013
aF2.828227305561997e-05
aF0.4402269789463378
aF0.07596831954232341
aF1.0
aF0.0012502182081000593
aF-4.696130014284109e-05
aF0.0002923385563197493
aF-9.393575378893185e-05
aF0.0001293593838115746
aF0.0001981671779386484
aF-0.00012736126830063428
aF5.548046040246281e-05
aF6.902999230600162e-05
aF0.0001237463987034086
aF-0.00013219521412593139
aF-8.43265381464818e-05
aa(lp182
F1.959504598181167e-05
aF0.0016871436606204976
aF1.7733389279139107e-05
aF0.39510606713853214
aF0.059427429832293585
aF1.0
aF0.001538106616942961
aF0.0004707118081746951
aF0.00041655865409621727
aF-7.556787287147456e-06
aF0.00020306064052186127
aF7.992671425442743e-05
aF0.00013015458954665322
aF1.6273949942233326e-05
aF2.6931496571996562e-05
aF0.0001338034701587072
aF-3.2813616059453694e-05
aF-6.113406730361552e-05
aa(lp183
F1.451399492520453e-05
aF0.0011192674637646083
aF1.144926962859791e-05
aF0.36620383900142445
aF0.04301986227216401
aF1.0
aF0.0023462197072226837
aF0.0005514590694742326
aF0.00036289533840041925
aF0.0002516572826742921
aF2.3837400933865357e-05
aF-5.384003463495194e-05
aF-8.773528123397091e-05
aF-4.001999984687724e-05
aF-0.0001745767339808438
aF1.4412564090390509e-05
aF3.291299349926417e-05
aF-8.016509501518062e-05
aa(lp184
F3.0532558987277254e-05
aF0.0029083360539132975
aF2.9050568187424168e-05
aF0.4845856329876436
aF0.07788774033625602
aF1.0
aF0.00012218753645509752
aF-3.593879372122822e-05
aF-0.0004966284546474996
aF-0.0003165058817943094
aF-0.00022940056660564225
aF0.0002680107367625636
aF0.00040885853101268674
aF-1.8666858591251414e-05
aF-0.00015767255034942226
aF0.00012042825283042143
aF-4.939370537480314e-06
aF-0.00026032451058900715
aa(lp185
F2.8691950879555403e-05
aF0.0030017145540719805
aF3.4689037879643676e-05
aF0.5103355257624276
aF0.0977114742000968
aF1.0
aF-0.00023554924061024255
aF-0.0004748208233807498
aF0.00021190035307785347
aF-9.224353802717497e-05
aF0.00030727956520234693
aF-0.0001350687742336756
aF-0.0001890317240528767
aF-6.764175085799072e-05
aF0.00028411234637882405
aF0.00020334437028617273
aF-3.405469031658236e-05
aF8.499531698956098e-05
aa(lp186
F2.4333423636453102e-05
aF0.002372319514869345
aF2.7422682255168274e-05
aF0.4535033497945179
aF0.11020383433287577
aF1.0
aF0.0006267233830327349
aF0.0010997724855498002
aF0.00011731683434371983
aF0.0004063042115800412
aF0.00029068094177332987
aF-2.0859316111793836e-06
aF0.00024715283837391797
aF3.1710491783061214e-05
aF-0.000315199411251516
aF9.79080702151424e-05
aF6.04504811057433e-05
aF-0.00016031552198962835
aa(lp187
F1.8433989235951344e-05
aF0.002487079007344893
aF3.036990928924404e-05
aF0.44709092722626387
aF0.08709300132047347
aF1.0
aF0.002081679963743775
aF-0.00014221484419194963
aF-4.688321289716095e-05
aF-1.951530137670906e-06
aF-7.384027075922007e-05
aF0.00011086522941344441
aF0.00048480594669289535
aF-7.3715251408458e-05
aF4.21139394725469e-05
aF-0.00023007923935742703
aF-1.274855828048745e-05
aF-5.1433247845195376e-05
aa(lp188
F2.295844589021379e-05
aF0.003088691814603577
aF3.530912136439774e-05
aF0.46199609183130186
aF0.08376711538655708
aF1.0
aF0.001183149107602112
aF0.000124416656533127
aF1.7135154768585745e-05
aF3.896499018783262e-05
aF-5.551686022113034e-05
aF2.642254848582275e-05
aF8.630968981421816e-05
aF-0.00011057589208530945
aF-0.0001429831381823135
aF0.00011619181205960005
aF4.460440117231744e-05
aF-0.0001692263577178635
aa(lp189
F2.050418949556001e-05
aF0.0027146193226404536
aF3.774915094938167e-05
aF0.48500364374932803
aF0.06203184111715551
aF1.0
aF-0.00016090816489589324
aF0.0007202626840989252
aF-0.00048821275056150094
aF0.00014330785458665753
aF0.000152111075293577
aF-5.931510908576774e-05
aF0.0005137710008227259
aF0.00013569171627897614
aF-0.00011719086661796738
aF-0.000315806584638591
aF0.0001112618396152697
aF0.00020221918059035128
aa(lp190
F2.0748969709320616e-05
aF0.0022013179093123203
aF2.302713365960899e-05
aF0.4153312780178154
aF0.08418745502578627
aF1.0
aF0.0021929180243254257
aF6.811214096138898e-05
aF1.7159037979864848e-05
aF-3.528151137039286e-05
aF0.00022860926333640388
aF0.00010539406208604381
aF0.00020762958110081046
aF0.0001235188923934717
aF-0.0001374837219370492
aF1.0005802762632498e-05
aF-3.1331181760739045e-06
aF8.777758631762823e-05
aa(lp191
F2.9508745327121472e-05
aF0.002843450414597821
aF2.0523202189965345e-05
aF0.41797683036100514
aF0.1598533556036948
aF1.0
aF0.003072003410485672
aF0.00010674316341082372
aF-2.4407232625780684e-05
aF-0.00020730167986758545
aF-5.57497906709104e-08
aF-9.95108229941411e-05
aF0.00020565402758545632
aF0.00016019856590246645
aF4.904884472912994e-05
aF-6.522622726405447e-05
aF-3.465820708626105e-05
aF-8.753001499820031e-05
aa(lp192
F1.8800467537810472e-05
aF0.0021648436248152573
aF2.045404959559267e-05
aF0.4440340415601247
aF0.09749681408459401
aF1.0
aF0.0022820631424658355
aF6.21539155811574e-05
aF-3.7074461653378026e-05
aF8.96561058529192e-05
aF0.0001640836882388463
aF0.00020036606581818424
aF0.0001351935068107614
aF1.2796888893566157e-05
aF2.5456775230060777e-05
aF-0.0002157793846072924
aF-0.00019535162289594166
aF4.148297537344068e-05
aa(lp193
F1.7104348405419235e-05
aF0.0025619663624654155
aF1.589815593575081e-05
aF0.46899375342153127
aF0.10191157818684927
aF1.0
aF0.003566550019966057
aF1.5178083134469809e-05
aF-2.832112565556964e-05
aF-2.1274128523960033e-05
aF-1.4372940659860748e-05
aF5.2295656198148465e-05
aF7.998933692234508e-05
aF7.768051137859556e-05
aF4.205811921132994e-05
aF-1.637435625202554e-05
aF-3.4660378530993405e-05
aF1.7789039822569167e-05
aa(lp194
F2.6303942631948353e-05
aF0.004020771943520975
aF3.778046485866585e-05
aF0.48629612679588635
aF0.13228585092963235
aF1.0
aF0.0011071025523504252
aF0.0002857801416575419
aF-9.225123160776752e-05
aF-2.358929747279545e-05
aF0.00017229829788477477
aF-2.198895380368046e-05
aF7.43699014135057e-05
aF-9.778150626251421e-05
aF-2.08300738364396e-05
aF-0.0003283198938721604
aF0.0001951979223651794
aF-5.3959164560169713e-05
aa(lp195
F2.9869191143264158e-05
aF0.0035974668053053876
aF4.2565115376949067e-05
aF0.4878937905193535
aF0.1316209587689403
aF1.0
aF0.0006357450224591936
aF4.243456676644709e-05
aF-0.0002809889724396765
aF0.00043415036312086
aF0.0004641011046188922
aF0.0002847346252445393
aF-8.07889717374742e-05
aF-0.0002600127862640748
aF-2.4746102210380476e-05
aF0.0001026751680168453
aF8.832437959944335e-05
aF0.0002227195298383112
aa(lp196
F2.2450350522785012e-05
aF0.0018425978948268238
aF2.2377222212856662e-05
aF0.5527801452349527
aF0.0841851262011806
aF1.0
aF0.0014911743803408361
aF0.00045341306669875536
aF0.00014149497806272379
aF0.00013821699483603493
aF7.90591884499622e-06
aF0.0001808091445453194
aF-5.513763982343694e-05
aF-0.00021791583892544013
aF-1.2843345887184607e-05
aF0.00020841974471968926
aF0.00029804224456955736
aF-0.00017454539468623822
aa(lp197
F2.8888764855752316e-05
aF0.003303250764347445
aF2.505900915037826e-05
aF0.46468502885890556
aF0.18393794473881908
aF1.0
aF0.0013735060054668334
aF0.0004930111151584166
aF6.794180179340704e-05
aF-0.0002812033441373665
aF-0.00031903213091143476
aF0.00023743837138017187
aF0.00024154016107851706
aF-8.667462489638509e-05
aF-0.00031559622546930416
aF6.922084999039274e-06
aF4.2348897118710525e-05
aF7.39080326664009e-05
aa(lp198
F2.523710607769442e-05
aF0.0024495449285953383
aF3.532439691194453e-05
aF0.5025696708122712
aF0.05773555002451021
aF1.0
aF0.003090619110465068
aF0.0008622323917964049
aF-0.0014660994317919963
aF-0.000780344873118306
aF3.5190376270875474e-05
aF9.674480046838272e-05
aF0.0008730257761570104
aF0.0008483694057329579
aF6.73216936396139e-05
aF-8.59212169836883e-05
aF-3.245499400611828e-05
aF0.0001382657294027565
aa(lp199
F3.960951126719238e-05
aF0.0030661049505417786
aF1.8508248466797436e-05
aF0.3872279398815226
aF0.3084567881751822
aF1.0
aF0.003036624814536738
aF0.0001744750143881278
aF-0.0001815482518847489
aF-7.923875734182362e-05
aF5.6694337231803886e-05
aF6.395171759967656e-05
aF-0.0001584636988785333
aF0.00014842862551579978
aF-0.00020772673754334078
aF0.0003352983612378078
aF7.396486034450664e-05
aF4.418497450971199e-05
aa(lp200
F4.370681778557612e-05
aF0.0030042327669297826
aF2.35231805662756e-05
aF0.41318142444581185
aF0.2735682362905574
aF1.0
aF0.0017421449227568466
aF0.0011350779103153625
aF-0.00012959190939735855
aF-0.00024483367275076077
aF-0.0004397332320108421
aF9.98658093327499e-05
aF0.0001406995973926787
aF2.5724032505219084e-05
aF-7.551357331251149e-05
aF0.00021445966916908515
aF0.0001539969867147341
aF0.0002595255085198955
aa(lp201
F2.9337523686642174e-05
aF0.002042819126058284
aF1.7898525714905565e-05
aF0.42507863401975815
aF0.1390391964261405
aF1.0
aF0.0022986963356837215
aF0.0008361964530529764
aF-0.00011640940603798271
aF-0.0004271619451278946
aF6.202565231791978e-05
aF0.0001899271152756933
aF-0.00010901024456422407
aF7.609246188768784e-05
aF7.565577244653862e-05
aF-0.000134236358518387
aF-0.0001968671999521763
aF-0.00010351600538156178
aa(lp202
F2.3169402869552834e-05
aF0.002280932450479507
aF1.7063757922409545e-05
aF0.4712106352250759
aF0.13960550638038718
aF1.0
aF0.002527845495566997
aF0.0002564881441952153
aF-1.9059568030300336e-06
aF0.00011525543149390129
aF-3.258977655057656e-05
aF0.0001290102220722476
aF4.552957996143264e-05
aF0.00015801611479460088
aF-6.705339245963344e-06
aF0.00016668591873708578
aF-2.071730867686547e-05
aF7.963540414726011e-05
aa(lp203
F2.0348954405692893e-05
aF0.002376018084257622
aF3.325721519318054e-05
aF0.5229533093821247
aF0.03981730813340728
aF1.0
aF-0.00028777105362998775
aF0.0001297874068980886
aF-0.0006800327989365339
aF6.733932735741768e-05
aF0.00042255411232671245
aF-0.00019474814747823634
aF-0.0001519853536582284
aF-0.00024127152750577066
aF-0.000452852028200633
aF0.0005053399728315238
aF3.080283570794718e-05
aF-0.0005087529279368602
aa(lp204
F2.2508112306206132e-05
aF0.0021400234970255106
aF3.43080454150924e-05
aF0.45787639557094806
aF0.07629897510780502
aF1.0
aF0.000351688652389556
aF0.0004059838759225275
aF-0.0003518721785808188
aF0.00013559043871847411
aF0.0005814804677060319
aF7.617058992846335e-05
aF-0.00015384664303008544
aF-0.00030135471294287454
aF-0.0001262773371774486
aF0.00010932769945564936
aF0.00016433678066311326
aF-0.000123419085118402
aa(lp205
F2.0756894617753314e-05
aF0.002250899098166184
aF2.3569358087393244e-05
aF0.44342251102900887
aF0.10252750321003945
aF1.0
aF0.0022633261051045526
aF0.00014784639841762588
aF2.7760004090290506e-05
aF-9.256454028194895e-06
aF-7.52764692396832e-05
aF-5.193140063713313e-05
aF-3.6701723756432367e-06
aF1.5705167482452714e-05
aF-1.1823660046814709e-06
aF-3.8027532436402275e-06
aF-1.7283147750347622e-06
aF2.5153700995304475e-05
aa(lp206
F1.863972174230053e-05
aF0.001989342084015671
aF3.523665683949118e-05
aF0.47962399110386084
aF0.045222223965253654
aF1.0
aF-0.00010705377677719161
aF0.0007430004908098797
aF-0.0007747498779586992
aF-0.0003012862656862551
aF0.0005053934384356764
aF0.0002761511958153888
aF0.00040139250729233247
aF-3.744108712381511e-05
aF-0.0003560692689451927
aF-0.00016715783784896788
aF0.0001789685481793591
aF9.507095873282702e-05
aa(lp207
F2.270111095559695e-05
aF0.002565054452410675
aF3.8798133381052375e-05
aF0.5075833498938148
aF0.05857254700907316
aF1.0
aF-0.0005214756886834555
aF0.0006974096187565972
aF-0.00011940320271968485
aF0.00032915712868442917
aF0.00018025872825605613
aF0.00018541294458328762
aF0.000532844210779034
aF-0.00026920287198940415
aF-0.00019390893725161528
aF0.00016198498064562877
aF0.00020981444638840877
aF0.00020007105274299838
aa(lp208
F3.4639779952783766e-05
aF0.0027677715328460486
aF1.9205739397149762e-05
aF0.3873894216284612
aF0.24029375314186915
aF1.0
aF0.002348741916985929
aF0.0008562196315947631
aF0.00033967962882313116
aF6.306553402842555e-05
aF-0.00016633019809527715
aF-2.7204282417891305e-05
aF0.00012315224609516046
aF-5.05612507191128e-05
aF-1.870083641852243e-05
aF-0.0002424284855365253
aF-0.00014955671807590848
aF1.8900773980515568e-05
aa(lp209
F2.405560511332165e-05
aF0.0033701807054032505
aF3.6882267081124486e-05
aF0.4961448859413276
aF0.07830569698360765
aF1.0
aF0.0010141288551278737
aF0.0001295978489702065
aF-5.4675903471203816e-05
aF-9.820027985948883e-05
aF-0.0001237200053862699
aF-0.0003595121359313856
aF-0.00019116328696814488
aF-3.0819502254064725e-06
aF0.00020064781569063193
aF0.00012976414215070753
aF4.520534638406292e-05
aF-5.949142802116441e-05
aa(lp210
F2.3288763071158108e-05
aF0.0022183607323819827
aF3.8041997463515136e-05
aF0.453461088740259
aF0.07775864501746732
aF1.0
aF0.0019037083070945276
aF0.0005257916286917432
aF-0.00018162206806131512
aF-0.00021368082025638276
aF0.00015222009558306593
aF0.0005031031963949971
aF0.0003740645033725627
aF-0.00013847587658745986
aF-0.00020678636743939636
aF-3.426896468203206e-05
aF-0.00013593628834382673
aF0.00026199632386591614
aa(lp211
F2.650272406386545e-05
aF0.0032623381429046703
aF4.460177747954345e-05
aF0.5446378814266861
aF0.076283211590179
aF1.0
aF0.001175024903045366
aF2.0876021320840216e-05
aF0.0001314092702783826
aF-0.00033790854541665253
aF0.00048544380786713485
aF-0.00015023554738239793
aF0.00029048425458820835
aF0.00017893748627798242
aF-0.00025219278462265405
aF-4.316265957805062e-06
aF9.853873202817298e-05
aF-8.238528792016632e-06
aa(lp212
F3.7272834740468396e-05
aF0.0030067472911015085
aF2.0075403378189836e-05
aF0.3936598056344439
aF0.21157034616620676
aF1.0
aF0.002023516777594835
aF0.0010759724284848304
aF3.732433670149508e-05
aF-0.0003193316820737808
aF-9.621701954259095e-05
aF0.00044341741074324724
aF0.0003845651178220469
aF0.000517303739763988
aF9.3025361379367e-05
aF-0.0002615184811114783
aF-1.09580276267314e-05
aF-0.00018457402142746336
aa(lp213
F1.9172194126096886e-05
aF0.0024337841404654726
aF1.1341107664385112e-05
aF0.39145020772739203
aF0.18555655310891403
aF1.0
aF0.0036905689256786435
aF4.094276065835706e-05
aF-1.02644534026638e-05
aF-6.393217155213895e-05
aF-3.848888262327361e-05
aF1.7872433680724227e-05
aF1.9019208217604656e-05
aF2.2913500738614583e-05
aF4.9283330381647464e-05
aF2.7376247723359712e-05
aF-2.866596082546179e-06
aF-4.868698209194564e-05
aa(lp214
F2.200138089400713e-05
aF0.0026120134462176803
aF4.227001968379157e-05
aF0.48004495347768006
aF0.06069484789812154
aF1.0
aF0.0004323826133521993
aF0.00011818165155610297
aF3.4770474918153856e-05
aF7.158955493128241e-06
aF-9.127045760675338e-05
aF2.6998169724482428e-06
aF5.558276796061713e-05
aF-3.6376631529419124e-05
aF-4.151384398815762e-06
aF-0.00024786244499525506
aF3.098156132472633e-05
aF-0.00015085289683163636
aa(lp215
F2.6148038848385484e-05
aF0.0026192131739778057
aF3.2877013548506417e-05
aF0.4668985771013802
aF0.08001948207404076
aF1.0
aF-6.784674827161866e-05
aF0.0006383423703999679
aF-0.00039477012658631
aF0.00022262944668775255
aF-0.00029803087436018155
aF1.644118219201212e-05
aF3.2782607876666645e-05
aF0.00013131048618561668
aF-5.018433826535656e-05
aF9.89087267137566e-05
aF-8.934640225180956e-05
aF0.0002493755731195848
aa(lp216
F2.6250605119641055e-05
aF0.0029414914523029174
aF3.351172181667553e-05
aF0.4478174260177725
aF0.12651333120562158
aF1.0
aF0.002025167408737104
aF-7.477514439563258e-05
aF-0.00022666084811620205
aF0.00022869508881615062
aF0.00015891080147000577
aF0.00020493803601476498
aF0.0001073453752678594
aF0.0001222507613592422
aF-9.018717384270494e-05
aF0.00014412481806386993
aF6.295007684441023e-05
aF0.00014825026152694192
aa(lp217
F2.6182316357599427e-05
aF0.0033536310978797635
aF3.0282716080787307e-05
aF0.4312521284503842
aF0.2032478307865819
aF1.0
aF0.0012133744070067292
aF0.00017661708715578154
aF0.00020021031742710986
aF-0.0001260944939504928
aF4.696285866018969e-05
aF0.00039364252591600094
aF0.00032545607580745846
aF5.735766555059631e-05
aF-8.303175707200811e-05
aF6.233874620072693e-05
aF0.0002680380096736742
aF-2.6671043957589575e-05
aa(lp218
F4.7759167504103864e-05
aF0.0039036234197905397
aF3.5872487846120513e-05
aF0.5099060559653614
aF0.26224638663954
aF1.0
aF0.0034742949522016367
aF1.0859040279536988e-05
aF0.000237952734217097
aF-0.00010608185451751387
aF0.0007637537951534285
aF0.000550678653963586
aF-0.00012258123032140187
aF0.0001270227920648921
aF-2.672198909478832e-06
aF0.00017376844114717804
aF-0.00021741128228529305
aF-0.00019436209541144806
aa(lp219
F2.0278976321936462e-05
aF0.002313442442474758
aF1.7387599769481474e-05
aF0.40890623887406147
aF0.17178877284714303
aF1.0
aF0.0025193377258823034
aF0.0002877292492186185
aF-0.0002218372663318718
aF0.0003844528947930016
aF-0.00019605717259561138
aF-3.610215224300127e-05
aF-0.0001655362959834364
aF0.00011793518827233876
aF1.7316597338942495e-05
aF-4.4365207603996595e-05
aF7.69338649610134e-05
aF-7.738686003621803e-05
aa(lp220
F2.452652289201184e-05
aF0.003322841634015939
aF3.5577312371891674e-05
aF0.49100509316573315
aF0.10700143537211423
aF1.0
aF0.0014202811490995196
aF-2.50028921756273e-06
aF-0.0003040964334184924
aF5.7909428123400166e-05
aF-8.49893312719862e-05
aF0.00015136714431156467
aF-0.0002447900658454883
aF1.2918402113557181e-05
aF0.00010550599978064258
aF1.658605968415079e-05
aF0.00018695160409893443
aF-9.308904708678826e-05
aa(lp221
F4.160793058781678e-05
aF0.002817904617001593
aF3.1708729656070226e-05
aF0.4281579709888342
aF0.22984536423834936
aF1.0
aF0.0018786109515767215
aF0.0003710667675804449
aF-4.7862526323844334e-05
aF-0.00033526937468535546
aF6.348540219940616e-05
aF0.00045528283020359456
aF0.0001983904995627396
aF-0.00026648221614125725
aF-0.00046868556244638004
aF-1.6262492065736496e-05
aF0.00016472154846786766
aF0.0002082043014681343
aa(lp222
F1.7720907143134264e-05
aF0.0018420348464205554
aF2.111946350816346e-05
aF0.3897773399594377
aF0.10050013941374153
aF1.0
aF0.0008733141131755725
aF0.0006599055577852908
aF-0.00029906289743683676
aF-0.0001345188873253097
aF0.0001205182110161422
aF-5.156035953801384e-05
aF0.00033099229427435337
aF7.935559269720818e-05
aF-5.84232924787141e-05
aF-7.180226560850829e-05
aF-0.00017488076892404773
aF2.2244745438922374e-05
aa(lp223
F1.856898528221759e-05
aF0.002087791336120919
aF2.9975725408502415e-05
aF0.5035684729889414
aF0.03939691599210244
aF1.0
aF-8.340659283512507e-05
aF0.000550240576174833
aF-0.00038080519577063886
aF-0.0001810566349388116
aF0.0002635701908613167
aF0.0003162894147112958
aF0.0005119288772820329
aF0.000230404308847104
aF7.368819871321712e-05
aF6.685338733185996e-05
aF-4.714593765939423e-05
aF-0.0001499916396898845
aa(lp224
F4.6774241800860974e-05
aF0.003757379780412434
aF2.6372129907153446e-05
aF0.47743989101493883
aF0.2560698795801618
aF1.0
aF0.0038871273433788117
aF-3.718748632201909e-05
aF-5.684053200631363e-05
aF-8.06039549033424e-05
aF-8.243295638976485e-05
aF3.616920458316285e-05
aF8.230120134891071e-05
aF2.585369030916832e-05
aF0.000340538428844589
aF0.0002834504985297415
aF0.00023067116906861021
aF2.7258968673606617e-05
aa(lp225
F1.8327946428667732e-05
aF0.0019359388988412559
aF1.523474591291408e-05
aF0.4008630848989868
aF0.10147055316336419
aF1.0
aF0.002868145267781217
aF8.067151916330092e-05
aF1.6520967481185715e-05
aF7.715988907681477e-05
aF7.252613380320188e-05
aF0.00017850568732983617
aF0.00010941467019043816
aF0.00012862884471077137
aF-3.016263828049455e-05
aF-6.0230872677660445e-05
aF1.975378488404532e-06
aF4.203335080160963e-05
aa(lp226
F2.109017227162298e-05
aF0.003147603364735505
aF3.2811874343175316e-05
aF0.5079679555576517
aF0.06730263145243714
aF1.0
aF0.0002730652399523612
aF0.00043759729873538237
aF-0.0002916727740791133
aF-0.00023886783112586258
aF0.00010660226066321315
aF-0.00010835087090890193
aF0.00011681087738276708
aF0.0002619274621718394
aF-0.0001909864545014464
aF-8.081342095030416e-05
aF0.00032726987794207515
aF-1.642043200647006e-05
aa(lp227
F2.5973699098413176e-05
aF0.0033970077564478302
aF3.8647519244950074e-05
aF0.5287145642869888
aF0.08057360460630272
aF1.0
aF0.00014028572145586527
aF0.0005791009137173058
aF-0.000293590657797075
aF3.2583149620585937e-05
aF-0.00011904456383503151
aF-0.0003128670511127853
aF0.00037764368863811625
aF3.1329752091563545e-05
aF0.0001911403642096378
aF2.846026334965565e-05
aF0.0005376019353870769
aF-4.625098366094688e-05
aa(lp228
F3.72500051011668e-05
aF0.0026238061517954714
aF2.6439712978301143e-05
aF0.44135125856209617
aF0.14391445354150392
aF1.0
aF0.002322116907621393
aF0.0017211307465951667
aF0.0004112466824779317
aF-0.0001723249057043288
aF-0.00025467358692745105
aF0.0002726281542277277
aF0.00045122492157504275
aF-6.977759635520624e-05
aF-0.0004835209978495055
aF-0.00026737417359496725
aF0.0003308859353350464
aF0.00026852513679277007
aa(lp229
F2.7989395934504555e-05
aF0.0029231473879953855
aF1.9555333060114653e-05
aF0.4045815454892942
aF0.1830677434780725
aF1.0
aF0.002173120137386166
aF0.0014082089127574694
aF2.313271664100055e-05
aF0.00010540895208953386
aF1.8557928819391105e-05
aF-9.563371643412312e-05
aF-1.938584285983632e-05
aF-0.00020094777479890563
aF-0.00014169855597268033
aF1.9601093535167636e-05
aF-0.0001742782655747728
aF9.810687257500846e-05
aa(lp230
F3.2940975135640156e-05
aF0.0025567118021980547
aF2.698684139050424e-05
aF0.4680441160533955
aF0.10238726249265757
aF1.0
aF0.0020734492402528235
aF7.91518232130329e-05
aF-0.00012802946135568246
aF-2.2992188284113824e-05
aF-6.561095866147745e-05
aF-0.000136178176168276
aF0.00021063917480869447
aF-2.4160814473808288e-05
aF0.00043772266794603006
aF0.0001208642239682122
aF3.56595672994846e-05
aF-0.0004979290785548555
aa(lp231
F4.203542345082022e-05
aF0.002514692012900079
aF1.872526502929004e-05
aF0.4027534688367152
aF0.1991672990707716
aF1.0
aF0.0031416157238645308
aF0.00020020588998228252
aF-3.559284495599287e-05
aF-0.0003650226150867094
aF3.77536578467749e-05
aF7.585802538526726e-05
aF0.0002905839762127837
aF0.00028693852414161974
aF7.639071299957205e-05
aF-0.00019860247736799277
aF-0.00013705005167060507
aF-0.00013346909575479037
aa(lp232
F2.1248303911035247e-05
aF0.0018008150331352967
aF1.248037591646796e-05
aF0.3578793126040073
aF0.13034510951880537
aF1.0
aF0.0023653584713311912
aF0.0005317613735185247
aF0.00027661761774115255
aF9.901303300337432e-05
aF0.00013414249564941343
aF0.00015509153638762577
aF0.00010083397465863954
aF0.0001500702347662263
aF8.862111672957822e-05
aF-9.86464581316638e-05
aF-5.536065779831082e-05
aF-0.0002040918616572094
aa(lp233
F2.0277237630348493e-05
aF0.0023709555932577143
aF2.5633287531279283e-05
aF0.4901930979671079
aF0.04971351176649372
aF1.0
aF0.00036318275783733074
aF0.0009810058872289393
aF-2.437666447046866e-05
aF-0.00022575067657533082
aF0.0005484708348012634
aF6.133034686146605e-05
aF-5.029699981070697e-05
aF-0.0001522178108760816
aF-0.00020046158042018476
aF0.00023143217159488435
aF0.0001842129440265876
aF-0.0002319323283320194
aa(lp234
F2.915675873922728e-05
aF0.0036449315642885535
aF3.2306522929398695e-05
aF0.487523271815759
aF0.10090004052110323
aF1.0
aF0.0008253309253098115
aF-0.0001060228693284537
aF0.00010737702781393926
aF0.0002355769151439388
aF0.00014995761096786304
aF-8.131702993229817e-05
aF-1.5911489925061877e-07
aF-2.9649941588216407e-05
aF0.00010500896145983123
aF6.83509830780379e-06
aF3.389008081548554e-05
aF0.0002233843016585173
aa(lp235
F2.511170953615487e-05
aF0.002757172349286235
aF4.300860226254492e-05
aF0.5358649787981156
aF0.056195190754796544
aF1.0
aF0.0012982516378782316
aF0.0007072248575702928
aF-0.0001333825259916308
aF6.555665519314036e-06
aF9.885176584777908e-05
aF0.0005173362294437642
aF-0.0003624082564989718
aF-9.053457676694529e-05
aF-1.535318227081043e-05
aF-9.502811600508226e-05
aF-0.00042932414732867706
aF-7.559149923153933e-05
aa(lp236
F2.3211061868597615e-05
aF0.0023185755291962196
aF4.073126339347831e-05
aF0.506932097111798
aF0.051573754657565175
aF1.0
aF0.0009288161995354818
aF-5.274830958293963e-05
aF0.00024185158755708042
aF9.073738410285873e-05
aF0.0002466623096560891
aF0.0001741524187124607
aF0.00014251945396724058
aF0.00023074920722246416
aF-0.00015527342942604316
aF0.00016466298034552429
aF-0.00012806933416699255
aF3.874108897023583e-05
aa(lp237
F2.7856744793438646e-05
aF0.0024180685792776113
aF3.2994146820046636e-05
aF0.45513818854479715
aF0.075998301179824
aF1.0
aF0.00228396067190141
aF-0.0003125899039750078
aF-0.00023915995531332632
aF3.525926925851524e-06
aF-0.00010245827295084426
aF0.00015471464755661054
aF0.00018417826261409232
aF0.00022013337328665824
aF-0.0002558198965218346
aF-9.021627313249193e-06
aF-0.00033727879756224286
aF2.0564622666249702e-05
aa(lp238
F1.6157142150865434e-05
aF0.0013712385793495851
aF2.0222319803307253e-05
aF0.4979939564986474
aF0.056042628900012006
aF1.0
aF0.002088029618571588
aF-0.00010445560464231047
aF8.003746686926863e-05
aF3.1047028653775813e-05
aF-0.00014180155337248498
aF-0.00016855486244873313
aF-0.0001704792834073072
aF4.4343985863130666e-05
aF-7.777550859760936e-05
aF2.1869635414389857e-05
aF-5.1560589614992194e-05
aF-2.9024758543575017e-05
aa(lp239
F2.446568923956775e-05
aF0.0031179033612006787
aF5.119563741738566e-05
aF0.5883208315612675
aF0.050428345524340806
aF1.0
aF0.0003064579736157662
aF0.0002597935487493694
aF0.00039994797303058834
aF0.00011765876592725981
aF9.309597236418036e-05
aF-0.00022682659103199696
aF2.8466607040279637e-05
aF-0.00027714816654245903
aF1.9040238642476427e-05
aF-8.80125611465793e-06
aF-1.8227810508328442e-05
aF-0.00010194478526281347
aa(lp240
F3.08056735828082e-05
aF0.003434783701380893
aF4.587481002947821e-05
aF0.521284331244259
aF0.11785385873538048
aF1.0
aF0.0007589031437817344
aF0.00013632753279505506
aF-0.00018211681029183178
aF-5.856304482273669e-05
aF0.00014230341446781663
aF0.00011664768895420668
aF-8.426702193448721e-05
aF-0.00017465113171691703
aF0.000381092066665797
aF-0.00017170282969352377
aF3.5405073703698693e-06
aF0.00010820190117370001
aa(lp241
F3.2642977820043235e-05
aF0.003367585387841329
aF3.5211355881863244e-05
aF0.47073108619812154
aF0.1307961596773395
aF1.0
aF0.0015091404081443134
aF0.0006391565090032158
aF-0.00022261623451259605
aF-0.0006221461651702705
aF8.601511632850954e-05
aF0.00019446132122561576
aF0.00042525901562386254
aF-0.00038901666632257996
aF-4.43554912377774e-06
aF1.6684940574047514e-06
aF0.0002554763080166935
aF0.0001624092655512613
aa(lp242
F2.656024553350173e-05
aF0.002563283963089991
aF3.052380318182983e-05
aF0.46294700163850905
aF0.0826949520870516
aF1.0
aF0.0015475183134556621
aF-0.00034302352405101767
aF-0.000171866954352508
aF-0.0003385253918598028
aF0.00020097283036279334
aF-0.00011009758747972047
aF3.182122506120081e-05
aF-9.272415848348134e-07
aF-6.125978245691601e-05
aF-0.0002095081487417002
aF-0.00019411633160301006
aF-0.00029271120224829165
aa(lp243
F3.081227089595206e-05
aF0.002348397741931919
aF2.8161172325386356e-05
aF0.4680805150010262
aF0.08450179000024165
aF1.0
aF0.0011139804171922164
aF0.000677314345592921
aF-0.00043026197517317185
aF-0.0002154604878374652
aF0.0003306448624140131
aF3.795958486896539e-05
aF6.945383704680482e-05
aF4.1755639079755156e-05
aF-5.2510279485824665e-05
aF-5.678385015454975e-05
aF-0.00016149022629760972
aF-6.006869627863671e-05
aa(lp244
F3.341448652388416e-05
aF0.0016631461157846509
aF2.622268830431517e-05
aF0.45108772622966226
aF0.22929853379899814
aF1.0
aF0.0019645012112992077
aF0.00013725800155064684
aF0.00013284566228140477
aF3.7715722893630367e-05
aF0.00015267590585260962
aF-2.8340739307388237e-05
aF4.048586155595183e-05
aF-6.078064084216497e-05
aF2.5706646775584872e-05
aF-1.5767483314603596e-05
aF-0.0001352863492846365
aF0.00010843764778623265
aa(lp245
F1.6213105398598217e-05
aF0.0018233627892201793
aF4.499246332771847e-05
aF0.5998794555959877
aF0.017853117655047882
aF1.0
aF-0.002050806806516546
aF0.00034461179688489676
aF-3.714931647768281e-05
aF0.00017264812645024794
aF0.00021876503106547433
aF-0.00018968625316933988
aF0.00015613945351872108
aF-6.898715964143963e-05
aF-0.00019075269862276107
aF8.698968828997011e-05
aF0.00013708158550881163
aF-5.8719141996273075e-05
aa(lp246
F2.9134976490344218e-05
aF0.002400384775372881
aF4.1489337477370514e-05
aF0.5133856778324792
aF0.05914603310283247
aF1.0
aF0.0013114849329342545
aF7.24404089998047e-05
aF-0.0003961865616276645
aF-8.632718616644454e-05
aF0.0002624232353990055
aF0.0003251431528982017
aF-1.4009911759297506e-05
aF-0.00021354304704268267
aF-5.312642852771716e-06
aF0.00016377206874908758
aF0.00010851275462747048
aF-9.951953104373615e-05
aa(lp247
F3.724519437041659e-05
aF0.003807764063879131
aF4.117448017782048e-05
aF0.5382192623338611
aF0.14383120407055613
aF1.0
aF0.0019646927437213437
aF0.0002853496387517225
aF-2.2809704382189355e-06
aF-0.0001926559115972842
aF0.000326547341764623
aF-0.00010162961488808568
aF2.3302160817889755e-05
aF-0.00022633349594537884
aF-0.00038315134257511647
aF-0.00036288702967040215
aF-0.00018434115585258434
aF0.0005527967707929192
aa(lp248
F3.0699108985807424e-05
aF0.003136864493722046
aF4.6184937027175114e-05
aF0.552017635533924
aF0.08239219431480298
aF1.0
aF0.00043562788623633205
aF-0.0005478841809229603
aF9.194753168361068e-05
aF5.248464975765295e-05
aF0.00043944381074301854
aF0.00027776407007737663
aF-0.00032447077043301745
aF0.00016002102029403272
aF0.00020420928438227607
aF-3.1781453250061174e-05
aF-3.3479972797207458e-06
aF0.00020818541717971685
aa(lp249
F4.048117962167093e-05
aF0.003663468423854451
aF3.965771321418738e-05
aF0.5161500873381168
aF0.12169905887963031
aF1.0
aF0.002716813402923739
aF0.0004412392992219804
aF-0.00023041658083325934
aF-0.00026055938467852807
aF0.00011558889921955326
aF0.00014841250597275247
aF-5.5208966334705706e-05
aF0.00019138583000111818
aF1.4166284039919375e-05
aF0.000213639073599206
aF-0.0002615387328639604
aF2.3464997597133432e-05
aa(lp250
F2.798939474216123e-05
aF0.0028445777554336527
aF3.31690016147635e-05
aF0.47771911772968534
aF0.10434012475356905
aF1.0
aF0.0022608786213015454
aF-0.000233404351251731
aF2.8147244598020528e-06
aF-0.00041423456076884697
aF0.00024575532848928824
aF0.0004281952107771932
aF0.00039967117917622495
aF-6.496236606837438e-05
aF-0.00012274470362780258
aF0.00018505164711995464
aF0.0005919487927509633
aF0.0002609734390429164
aa(lp251
F3.0206041193432727e-05
aF0.0026176623573198306
aF3.060032469745873e-05
aF0.4530033183984555
aF0.08854140644713136
aF1.0
aF0.0013383189027816632
aF0.0007856478975799844
aF-0.0002652848822358644
aF-0.00034064223587266515
aF-1.9426550977227394e-05
aF0.0005070016499286456
aF0.0003402370362035336
aF-5.00961354881875e-05
aF2.931254616803572e-05
aF7.372245477662301e-05
aF-0.00036539523443466425
aF0.00021908870858238568
aa(lp252
F3.266623982616672e-05
aF0.001872559368026367
aF2.576995339092809e-05
aF0.4802403962499501
aF0.24410167874191002
aF1.0
aF0.0028828576050735242
aF0.00027336270499405454
aF0.0002502562144689546
aF-0.0001470136361882645
aF2.456382159966371e-05
aF0.00022571929972977595
aF6.758867955230798e-05
aF-1.0415250283098591e-07
aF1.2149357156504494e-05
aF-0.00027771107507720664
aF-3.629890713035435e-05
aF0.00020177456646820638
aa(lp253
F1.5559237402797116e-05
aF0.0019400927951191845
aF5.169591286328961e-05
aF0.5885351319648352
aF0.027060902507014897
aF1.0
aF-0.0008973527708096072
aF-4.152268399282401e-05
aF-0.00016215349143375706
aF-0.0002079472353446776
aF8.10434593156925e-05
aF-4.218450751965533e-05
aF0.00017689997466608238
aF-0.00014300296269552522
aF-0.00015099841328251954
aF0.00011106226500526367
aF-2.641548135504124e-05
aF0.00021508897554241524
aa(lp254
F2.267427645991349e-05
aF0.00243813071706573
aF4.8099785487560684e-05
aF0.5846786504980409
aF0.04079470114150104
aF1.0
aF-0.000785346704939325
aF-0.0005362012448698834
aF0.00019639233619725448
aF-6.751950223454879e-05
aF2.2899703145537955e-05
aF0.00014052943682190056
aF-0.0003185317392998372
aF8.613092723974956e-05
aF4.8499944256635066e-05
aF9.616604789409608e-05
aF-0.0003636439256114873
aF0.0002459829262077336
aa(lp255
F2.581411349228907e-05
aF0.003508305636687489
aF4.0180063798181864e-05
aF0.5092787350979786
aF0.09143621286163432
aF1.0
aF0.0005051633236353555
aF0.0004548546654664541
aF-0.00031127156497923176
aF7.40268143568355e-05
aF0.00033471479639826006
aF2.9224838794904428e-05
aF-8.810949646349493e-05
aF-0.0002768033306549624
aF-0.00022265580815706025
aF0.00036867139022185385
aF0.00023930482914883292
aF-0.0002444076241318168
aa(lp256
F1.9447240161156826e-05
aF0.0032825738890755168
aF3.802638841280071e-05
aF0.48792902653331965
aF0.09898091326997106
aF1.0
aF0.0005837754166680976
aF0.0004389349729660174
aF-0.0006631566822925827
aF0.00019000399337902753
aF0.00012543047342291686
aF-1.8836125749179228e-05
aF0.00030890338984274095
aF8.869071185741863e-05
aF-0.0004099844268985508
aF0.0001621062802192666
aF0.00019793955194973497
aF0.0003145508058543186
aa(lp257
F1.9252310641747786e-05
aF0.002980704338670258
aF4.777719163304922e-05
aF0.5362339987902314
aF0.0576891970460901
aF1.0
aF0.0009273670079581948
aF0.0007484105330000186
aF-0.0005961297568011372
aF-0.0003245777301305684
aF0.0005974471479122536
aF0.000164801576475419
aF0.0002248088270050851
aF-1.3370212533449945e-05
aF-0.0003687927873109755
aF0.00012742181507291756
aF7.654704973736468e-05
aF-4.8131613901406195e-05
aa(lp258
F2.131790552700716e-05
aF0.0028335041212571702
aF2.9450027372924305e-05
aF0.45351163554626256
aF0.08794814823200094
aF1.0
aF0.0018869913472763873
aF0.00019251858557602102
aF-3.717887885609384e-05
aF-2.445826354566996e-05
aF0.0006319633435877345
aF0.0003505593366517987
aF0.0001925893840258709
aF-0.0002097864865076182
aF-0.000625632046729604
aF-5.752143326229392e-05
aF0.0002574967866360426
aF0.00030421240345624096
aa(lp259
F2.868127582500155e-05
aF0.00281777749866935
aF1.964729454971211e-05
aF0.4939301373108963
aF0.4309642563848595
aF1.0
aF0.0033727867024408377
aF0.0003995982212140547
aF7.774692978563413e-05
aF6.915516863538667e-05
aF0.0002491087316240804
aF6.513195892998194e-05
aF1.8258752567429944e-05
aF5.509862000874081e-05
aF-0.00019217654895219572
aF0.00012520568938607013
aF0.00016557125425364333
aF0.00013875716177615084
aa(lp260
F2.451815467381713e-05
aF0.0039960443844102005
aF4.245450802166793e-05
aF0.5395941334660987
aF0.09118722302965503
aF1.0
aF0.0013645530332731192
aF0.00010057620578545543
aF0.0006082965561583577
aF-0.00012559335764908834
aF7.942248219474777e-05
aF-0.00021539009492112116
aF0.00027617638264320965
aF-0.00022637969945062323
aF3.4887338326648527e-06
aF1.656013632981694e-05
aF-2.698902847980503e-05
aF0.00011154656806387653
aa(lp261
F1.894762646270859e-05
aF0.0029570668395570753
aF5.287956910905423e-05
aF0.5600222984877499
aF0.058552879031541646
aF1.0
aF-0.0001256334323207947
aF0.0010053610421111628
aF1.3127468899404152e-05
aF3.403026294923712e-05
aF0.0001532724889469984
aF0.0002997605441249264
aF-0.00015932854512041775
aF5.16674988624579e-05
aF-0.00017671703600832803
aF-0.0001511079308227529
aF0.00014684832607104269
aF0.00014500259304276188
aa(lp262
F3.441944429249896e-05
aF0.0033165547687120356
aF3.135259305032676e-05
aF0.4425627861685523
aF0.21083858700077618
aF1.0
aF0.0014814215192728943
aF0.00041043492642636964
aF-0.0005803349567077037
aF-0.000662122810048442
aF0.00013478909451349858
aF0.00020681650131504646
aF0.0005059409010431212
aF0.00013062922405534573
aF-0.0002622086924466006
aF-5.4044110833341135e-05
aF0.0002907627309954435
aF4.575717127334573e-05
aa(lp263
F2.5834375652415865e-05
aF0.0030512459378756788
aF4.6278847013066164e-05
aF0.5585427742587316
aF0.06679314147126256
aF1.0
aF0.0012779683900063738
aF-7.409956486952482e-05
aF0.00042801590764881024
aF-0.00023485121909261791
aF-0.00031187428277457195
aF-0.00013041160743784268
aF0.000546463767492249
aF0.000371373479559115
aF-6.381715900159596e-05
aF-0.00033877821197341286
aF-1.4119296205512361e-05
aF-0.00019729555212251522
aa(lp264
F1.780873670894152e-05
aF0.002160477741499554
aF4.701775280716752e-05
aF0.5738140089605904
aF0.03199997982853531
aF1.0
aF-0.0007560982196126889
aF0.0007887866306847465
aF-0.0007710389347164844
aF0.0006079985780754225
aF0.00027482635504573195
aF9.812425569030828e-05
aF-0.0001265901571753753
aF4.761478984010389e-05
aF-0.00010768624476691791
aF0.00016246791815825864
aF-0.0003381346500823125
aF0.0001577425135276997
aa(lp265
F4.853349983322854e-05
aF0.0034823771261964435
aF2.9483211387865703e-05
aF0.43158179346857906
aF0.34675246640633234
aF1.0
aF0.0017657949996855952
aF0.0003377417921603513
aF-5.4559331665417424e-05
aF-0.0003637808854316414
aF0.00037668461414351075
aF0.0005264327539275616
aF0.00018414460065956003
aF-8.34515424483601e-06
aF-0.0004089261104018
aF-0.00025770822033744403
aF7.810757520633482e-05
aF-4.915376941351124e-05
aa(lp266
F2.2700062361195417e-05
aF0.001804221025466592
aF2.9156821925617157e-05
aF0.45695904768216467
aF0.08150252312632562
aF1.0
aF0.001168806820190589
aF0.0003203570722978127
aF-0.0001614583609081416
aF-0.0006720102826449612
aF8.307423319136247e-05
aF7.881973011653862e-06
aF0.00018854127391418904
aF0.00024249232195047292
aF-0.00013979463868339783
aF0.0003050557952118818
aF-6.72683835644495e-05
aF-3.76296271041264e-05
aa(lp267
F4.506851266624106e-05
aF0.0034938500950898264
aF3.0448622560304853e-05
aF0.4160324719574732
aF0.28397465142428424
aF1.0
aF0.0019822461114404107
aF0.00044912513765918096
aF-0.00023671651802593713
aF-0.0005483294207435523
aF-8.265804663682893e-05
aF0.0004065699534482175
aF0.00017083256866014818
aF0.00026468459627432175
aF-0.00020001595710648413
aF-6.746087883308098e-05
aF3.918777317346372e-05
aF0.00017145618930697657
aa(lp268
F1.6902008073467735e-05
aF0.0015288647886370385
aF2.44984595948911e-05
aF0.5244630009995169
aF0.09022962455869141
aF1.0
aF0.0025671109627489084
aF0.00017229658234858754
aF3.964842330272735e-05
aF1.1816853602606754e-05
aF7.714915594664029e-05
aF0.00014639960356195442
aF7.658078524568505e-05
aF1.2409745330525346e-06
aF-9.080804204446478e-05
aF-0.0002536633882702388
aF0.0002780619637530694
aF0.0001108358227176921
aa(lp269
F1.9292918158886364e-05
aF0.002348697204347283
aF5.106307368682853e-05
aF0.6009580852022289
aF0.03740376591028888
aF1.0
aF-0.0011925358102501584
aF0.00027993019324528036
aF-0.0003214574367982587
aF-0.00033698462990034903
aF-0.00023133349600082924
aF0.0002453261987847795
aF4.735782392568129e-05
aF-0.0002488724927928397
aF-3.3187691662401906e-05
aF8.678954103391893e-05
aF2.9641528070791887e-05
aF1.2496487538027965e-05
aa(lp270
F2.595016451397345e-05
aF0.002782763383367535
aF3.875127158601638e-05
aF0.505748215862874
aF0.08167224775767576
aF1.0
aF0.00035868720830195403
aF0.00015441325836004343
aF-0.00020349717646606978
aF9.540593726359349e-05
aF0.0002680700707683261
aF0.00011749933183748142
aF-0.00013557303541778602
aF-0.00031731102443120166
aF-0.00018672336447761987
aF0.00017916389211341011
aF0.0001817128285029757
aF3.760786847217487e-05
aa(lp271
F2.8184185185274196e-05
aF0.0035142664709570566
aF3.335355194132438e-05
aF0.46149260583491303
aF0.16163335470486992
aF1.0
aF0.0006471733118458811
aF0.0005641919489539251
aF4.1954110851636476e-05
aF-8.788225527632828e-05
aF6.450233425171734e-05
aF-0.00015355411121069373
aF-0.00013110916860350528
aF-1.8934321460247265e-05
aF-6.64167156786213e-06
aF-8.441701925879866e-05
aF4.2677263698458304e-05
aF2.9336070276298424e-05
aa(lp272
F1.147186541591645e-05
aF0.0013570533981967735
aF4.442927557784686e-05
aF0.5353688929932936
aF0.015999285873315873
aF1.0
aF-0.0013796638023322297
aF0.00029512602969821757
aF0.00033040929646248075
aF-0.000347646767890794
aF0.00029883267947579026
aF6.16880901614796e-05
aF0.000328787643323449
aF-3.1326735891196704e-06
aF-0.000182971862935689
aF2.929782479026152e-05
aF-0.0002694581610928785
aF0.0005981966240221021
aa(lp273
F2.9918756109760337e-05
aF0.002909414737992534
aF2.523839617194311e-05
aF0.4451515070239589
aF0.17985994276650347
aF1.0
aF0.0013147679640416092
aF0.0006217834309421017
aF-0.00025974731914258796
aF4.0488254515411136e-05
aF0.00035386747743354236
aF0.00034286887927534543
aF4.4463626712675636e-05
aF-3.400837642073079e-05
aF-0.00015045721586231945
aF0.00024423787483171744
aF7.469015861495253e-05
aF-1.8161943216550045e-05
aa(lp274
F2.958996715675922e-05
aF0.002310448126906314
aF2.870943468787968e-05
aF0.43492955252467164
aF0.15452382111381566
aF1.0
aF0.0019851002429458354
aF0.00026776348307269276
aF4.3465430248159865e-05
aF-0.00015724248238831238
aF0.00020422363607411304
aF0.0002823265614967572
aF9.578745241236848e-05
aF-0.00013136525063670368
aF5.1707309607540436e-05
aF-0.00020568725406720157
aF-6.261689396952423e-05
aF2.9858244927014367e-05
aa(lp275
F2.304427732555183e-05
aF0.0020487044552325415
aF2.3825052511361446e-05
aF0.5109270240032983
aF0.18286457561318623
aF1.0
aF0.002920499208015133
aF0.00028812297290359116
aF-8.810296815823464e-05
aF-0.00019025868744188863
aF4.1423781529419937e-07
aF-2.0789340752258797e-05
aF6.38695912214027e-05
aF0.00015659026455663665
aF-0.0002632142838232178
aF-0.0001279429218775201
aF0.00013119943165868498
aF-4.297615005449087e-06
aa(lp276
F2.22529250744075e-05
aF0.0029118980898593374
aF4.4111248614306556e-05
aF0.5472216066047199
aF0.05652979579828893
aF1.0
aF0.0008480897300461498
aF-0.0002230773866365388
aF7.666830520612236e-05
aF-0.0005103465486321426
aF4.205012977948357e-05
aF-0.0002450554275865211
aF0.00039010942389842334
aF7.890957249502476e-05
aF-8.637645071147449e-05
aF-0.0002669916456686472
aF8.30135923390474e-05
aF4.8701019929808604e-05
aa(lp277
F2.0640248989925634e-05
aF0.0028387363172950146
aF5.5272725213693204e-05
aF0.6100009084704399
aF0.044909241342014024
aF1.0
aF-0.0004390987624795243
aF-0.000514035887257846
aF-0.00012157614261508869
aF-0.0004217523567671422
aF-0.0001322336786398863
aF8.504319656001755e-05
aF-0.00010426366760569412
aF0.0001415147955137124
aF0.00012884753800519898
aF0.0002885768714808038
aF-0.0002037670460518195
aF3.894755721203747e-05
aa(lp278
F2.446029700293446e-05
aF0.00274721792659661
aF5.144109414903532e-05
aF0.5500977349211279
aF0.07727685896528486
aF1.0
aF0.0007176290158608767
aF-6.681626172782342e-05
aF0.0002620224949556147
aF9.640533635959958e-05
aF0.0003008219233111199
aF-7.82059812068802e-05
aF-0.00013669012152857474
aF-0.00037837434390031914
aF0.0002678284570875991
aF-0.000270336194448377
aF-0.0002905093014680497
aF-0.00021797371091196427
aa(lp279
F3.90371606943852e-05
aF0.004833944844096732
aF3.214990236647087e-05
aF0.45137269798402213
aF0.32730621784847275
aF1.0
aF0.0019141183312674746
aF0.00026371875594581834
aF6.544378968278915e-05
aF-1.0752922982144742e-05
aF-3.710608171745532e-05
aF0.00024963949186476334
aF0.00017423096445746503
aF0.0002662103695645221
aF-0.00030150029204490997
aF4.000140606380305e-05
aF-0.00010068760169490036
aF0.0002347583367002893
aa(lp280
F2.278887547312377e-05
aF0.0033160606544727763
aF5.077420239617514e-05
aF0.5472061940007621
aF0.07409709939075257
aF1.0
aF0.00036622819681214597
aF0.0008183058966663671
aF-0.0002822585136259613
aF-0.00016885867885890502
aF8.005105256469676e-05
aF3.759554893564608e-05
aF0.0002736224568581145
aF0.0001421956947766106
aF-0.0003228036395316403
aF0.00018373808785896736
aF0.00015969874848583513
aF1.9242202857141078e-05
aa(lp281
F3.845434308154945e-05
aF0.003940048174793968
aF3.258722038873393e-05
aF0.46951572407474906
aF0.2402391787329379
aF1.0
aF0.0023225809751854683
aF-1.3464002537852175e-05
aF5.433021298687369e-05
aF-0.0002792364316082931
aF0.0005081818493236694
aF-0.00017793651422698468
aF0.00026443146188435973
aF0.00012315782611871598
aF0.00014830266829176533
aF0.0002449580082904621
aF-1.1173153882368588e-05
aF-5.409723070025924e-05
aa(lp282
F1.7501225273711842e-05
aF0.0024458645380324097
aF5.126927194647929e-05
aF0.5755030075781322
aF0.040268547860668656
aF1.0
aF-0.0015302551706742917
aF-0.00022951516784391483
aF-0.0004461926189640076
aF-0.0005098662521807309
aF-0.00010741066689303181
aF3.4785587912806945e-05
aF-0.00024375578894762838
aF-0.00044662844017960047
aF-0.000249837736047628
aF0.00021829620920032458
aF0.0003369961619382765
aF-8.47300229324434e-05
aa(lp283
F2.690980512362786e-05
aF0.002884465741153811
aF4.234169624969013e-05
aF0.5062396506360437
aF0.10900392740841136
aF1.0
aF0.0017925805192702054
aF-0.0006868504179087889
aF0.0004674624261349166
aF3.1632136692093874e-05
aF0.000395411742040131
aF0.00034766653863723714
aF-3.3517802297029814e-05
aF-0.00025554732585924504
aF0.00016528146845603626
aF0.0003099515608093669
aF-0.00012131355900358326
aF4.5758025734353435e-05
aa(lp284
F2.8510552051894805e-05
aF0.004296233500871565
aF3.594870917849044e-05
aF0.4492036563165967
aF0.2415886813009648
aF1.0
aF0.0018631524564337739
aF0.00035123932941495884
aF0.000258445570585241
aF-0.000520778278321439
aF0.00023541790355995242
aF0.0001272873317104823
aF0.000542910778586325
aF0.0001280391919607948
aF-0.0006232035396910928
aF0.00010088773858433155
aF-0.00039443870086024267
aF0.00032849243185787644
aa(lp285
F2.0981326254481708e-05
aF0.002903520456925544
aF4.562475186810977e-05
aF0.570280026786314
aF0.06876536355075549
aF1.0
aF-0.0015225454173249508
aF0.00029290673395887816
aF-0.00013376933258071584
aF0.00011558247848078344
aF0.0006505807679713888
aF0.00018139101455258823
aF-8.504656292358981e-05
aF0.00023786764846240945
aF0.00019361508752448826
aF0.00021526961989971305
aF-0.00031317548957569304
aF-0.00022327465988379873
aa(lp286
F2.6144524152385458e-05
aF0.0034260253498143217
aF4.762470865416188e-05
aF0.5606806364955838
aF0.09963247738690444
aF1.0
aF0.0004583365651123248
aF-0.00047337637138743195
aF0.0005524294670301558
aF-5.823587089869985e-05
aF-2.9727087442491343e-05
aF-0.00011543743379812519
aF-0.0003420501446702667
aF-0.00017283701378096016
aF-0.0002149409602548749
aF-2.2865496206725037e-05
aF0.00028721914529577163
aF-0.00010237678708446456
aa(lp287
F3.794475813178399e-05
aF0.004150414640251502
aF2.9584966211424983e-05
aF0.4320979084725439
aF0.30556900569841866
aF1.0
aF0.0020300270834207007
aF0.0005491890785098576
aF-0.00021877910597949555
aF-0.00022045768980939772
aF0.00020593281072494164
aF0.0003231694072283214
aF0.00012556634618597745
aF-3.8239125220134606e-05
aF-8.525895686429036e-05
aF0.00014213651306301968
aF0.0002720129132931178
aF0.00012063392498747208
aa(lp288
F3.629840712521363e-05
aF0.0042416420095470015
aF3.0884588214415426e-05
aF0.4359304397868762
aF0.26439641611384984
aF1.0
aF0.0027126014799047065
aF0.00045761947354062813
aF-0.00011631985907760057
aF-0.00037844085178583356
aF4.261610620849831e-05
aF-1.8718961174603595e-06
aF7.086021483065989e-05
aF0.0001777670379986771
aF-0.0002479827820098902
aF-1.8753073728961943e-05
aF-6.451572027097013e-05
aF-1.1254005171638528e-05
aa(lp289
F2.940413570811669e-05
aF0.0027279871283071066
aF1.792564948727258e-05
aF0.44542465641897727
aF0.4058166048637832
aF1.0
aF0.0025815348762429796
aF0.0003243015307200611
aF0.00019184067666704852
aF-0.00016474651721543702
aF4.6976818815033286e-05
aF-2.3779112582369765e-05
aF0.00033341747910084794
aF0.00017961649579929938
aF6.034811221516128e-05
aF0.00019669071155184987
aF-0.000177210276329925
aF-6.950968502725526e-05
aa(lp290
F2.1105734961662123e-05
aF0.0032001408456694943
aF5.01159520517511e-05
aF0.5591719864737845
aF0.07306846222029395
aF1.0
aF-0.00038740594291915525
aF-8.987805553276393e-05
aF0.00015716973845574214
aF-0.0003950138359627476
aF9.618386884706027e-05
aF0.00023730931111056147
aF-0.0001005687941397459
aF0.00013503496247442714
aF6.156097077614143e-05
aF9.443288213877353e-05
aF0.00017595283568837416
aF0.00013668653244351667
aa(lp291
F2.0361088439971343e-05
aF0.0020494834975231277
aF4.7563387259299164e-05
aF0.5652171615739808
aF0.03775659432705319
aF1.0
aF-7.98136850705876e-05
aF0.000603884809599758
aF-0.0011092178505922618
aF-3.639867307179163e-05
aF0.0005559003736062013
aF0.00016388627410710867
aF0.0002450449052382049
aF0.00011221608623007153
aF-0.0005229613000942939
aF1.8123644912916177e-05
aF0.0001361879918032473
aF0.00017429054070226162
aa(lp292
F2.738148026037128e-05
aF0.0038562701675699707
aF3.776393567275289e-05
aF0.5086464282063138
aF0.1697822260301034
aF1.0
aF0.0017455912332665214
aF0.0004683163259692635
aF-8.812447780056509e-05
aF-0.00027122980054095867
aF0.00018548628818926513
aF0.00023314713199717785
aF0.00012547221934453001
aF0.0002186620350067657
aF-1.6120410960076795e-05
aF9.653727174842612e-05
aF0.0002664582353486649
aF-6.229586998866193e-05
aa(lp293
F2.015493527998175e-05
aF0.0028338147578833906
aF4.5683526917477e-05
aF0.5937311255129752
aF0.05457066367088705
aF1.0
aF3.0265081968185114e-05
aF-0.00024943446328203495
aF-0.00010779750689814736
aF-0.00024980225827314845
aF-9.44426116349423e-05
aF0.00039115000828532663
aF-0.0002681811280063171
aF-0.0003712402528165036
aF-0.00010506004314883935
aF8.960005551542938e-06
aF-4.29960202385075e-05
aF-8.119917082792173e-05
aa(lp294
F4.061345420645078e-05
aF0.0036779318310003572
aF3.026219753810169e-05
aF0.45646568931005443
aF0.2842082548945352
aF1.0
aF0.0026460505827955666
aF0.0001696021075275059
aF-0.000169712624873146
aF-0.0003571814480108115
aF-0.00022504454819886495
aF0.00029151075118711146
aF0.0002620420282127005
aF-1.4714299995592333e-05
aF5.531107120015954e-05
aF7.3673300229326e-05
aF5.698583883977035e-05
aF-0.00010365230932214329
aa(lp295
F3.250534868279054e-05
aF0.0030748778609173797
aF3.6808244890360354e-05
aF0.4430247323430388
aF0.17711609138523743
aF1.0
aF0.0021519366942682823
aF0.0002190274039844779
aF-0.00014487204413088538
aF-0.00015416405479049263
aF0.0003137901959414228
aF-0.00015104790921821305
aF0.000539714304648343
aF-0.00021049377495131516
aF4.0068801094308405e-05
aF0.00025507440480232213
aF8.388665425605115e-05
aF-0.0001756861949219578
aa(lp296
F1.7139844547998165e-05
aF0.002800230274322827
aF5.823644039886387e-05
aF0.6258383508873938
aF0.04124123170722727
aF1.0
aF0.0011015344206967027
aF-0.00017339790626869775
aF0.00020171872695764052
aF-0.0003746723777131094
aF0.00036251656110090474
aF-6.336331149249842e-06
aF-3.177602387809513e-05
aF7.15082626079386e-05
aF-1.739682369403871e-05
aF-0.00011850747466012264
aF0.00024170360117285936
aF-9.768091780963069e-05
aa(lp297
F3.900219163059704e-05
aF0.003939784422349232
aF3.8238723296217125e-05
aF0.5092059484850852
aF0.193763948580748
aF1.0
aF0.0015895035258376344
aF0.0002368470838577517
aF-0.00029101791474578197
aF-2.024953300506062e-05
aF0.0006351425593644866
aF0.0003192202124939006
aF-0.0003373227248325528
aF-0.0001979067366672638
aF8.984406183820914e-05
aF0.00013385047764694915
aF0.00037632639667340567
aF-9.687428984596242e-05
aa(lp298
F3.6531717181669534e-05
aF0.004153251308161202
aF3.430195833628965e-05
aF0.5077102327210624
aF0.1781843851038167
aF1.0
aF0.0019936921343316314
aF0.00034967172577238384
aF1.8563950345229295e-05
aF-0.0002778570317613673
aF0.00016456427613732578
aF-0.00039989520511841807
aF0.00043415865750029734
aF-0.0001567642546036053
aF-7.705595013243813e-05
aF-0.0005175232091725031
aF0.0002733723742093471
aF0.00016817406685948216
aa(lp299
F2.0694090771704574e-05
aF0.002531737598916564
aF4.8689258803705227e-05
aF0.5764802727424526
aF0.044849156048965444
aF1.0
aF0.0006704672597558473
aF0.00031389494755445406
aF0.00013578644349052405
aF9.403502595885886e-05
aF-6.872129368298517e-05
aF0.00011656628393740956
aF0.0002062771141655137
aF7.18224256917898e-05
aF-4.599605005862881e-06
aF-6.287421426431333e-05
aF0.00019318636623394568
aF-2.6518199475545836e-06
aa(lp300
F3.324475145787908e-05
aF0.0036137844237180312
aF3.0007700532364328e-05
aF0.45765751653779896
aF0.1843974731025922
aF1.0
aF0.0033744208251350384
aF0.0006027849139204578
aF-0.0003765771103627012
aF0.0008754005711965882
aF0.0002665339835381041
aF-0.00018979569793860576
aF0.00027140613076360955
aF-1.963286726114007e-05
aF-0.0003399707665318127
aF9.811187911487893e-05
aF0.00012625257417836686
aF8.273149887393257e-05
aa(lp301
F3.3767415007195524e-05
aF0.0025435547954369498
aF2.1730809410869875e-05
aF0.43896503365941575
aF0.30854235814294567
aF1.0
aF0.002454597876290672
aF0.00015978438779756386
aF0.00013281609074512448
aF-8.040122293892876e-05
aF0.0001126308454280305
aF0.00014860285408929217
aF2.3032257240819556e-05
aF1.6653184597778372e-05
aF3.3919702006814175e-05
aF-9.067490454412223e-07
aF-1.0897112297025592e-05
aF-0.00010445188230402954
aa(lp302
F2.2700212805013895e-05
aF0.0016380793987524455
aF1.7269613102250033e-05
aF0.4570669090849849
aF0.15624206924583017
aF1.0
aF0.0027920372088490607
aF0.0002731214219819772
aF-6.738082742076882e-05
aF-1.9643336401688954e-05
aF-0.00011441774245581527
aF0.00010777066969072305
aF-4.5113179586083824e-05
aF4.9232275489903804e-05
aF-0.0001315252802476495
aF2.8215232605453697e-05
aF-4.555754452804679e-05
aF-4.815081363621108e-05
aa(lp303
F1.344203802929996e-05
aF0.0017672618119834904
aF4.3731118737727446e-05
aF0.5612194532321202
aF0.016521894153677722
aF1.0
aF-0.0007252546951691652
aF9.835994563263835e-05
aF0.00025364985182166247
aF-0.00017430437713346423
aF0.0001299823882133943
aF-5.427472341450909e-05
aF0.00042749276172086067
aF-2.905039098286986e-05
aF-0.00017068694627287654
aF-0.00014230352260160393
aF0.0002757095411715058
aF6.924632034623314e-05
aa(lp304
F2.303122589003519e-05
aF0.003050452995651254
aF5.13842696826299e-05
aF0.5775956916655307
aF0.0502168420627957
aF1.0
aF0.00044641650652326386
aF0.00028951165249794424
aF-0.0005989603662243692
aF-6.0374361894835105e-05
aF0.00038737152684894133
aF0.0001518499862899042
aF-0.00018923439479634341
aF1.3561355676559427e-05
aF-1.020761818646166e-05
aF9.64037652421823e-05
aF0.0001280862521362072
aF-0.00012987785528664807
aasS'classification'
p305
(lp306
I3
aI4
aI1
aI6
aI0
aI0
aI3
aI3
aI4
aI1
aI6
aI5
aI0
aI4
aI1
aI6
aI5
aI0
aI4
aI1
aI6
aI5
aI0
aI4
aI1
aI6
aI5
aI5
aI0
aI3
aI4
aI4
aI1
aI6
aI0
aI4
aI1
aI6
aI5
aI0
aI4
aI1
aI6
aI5
aI0
aI3
aI4
aI1
aI6
aI5
aI0
aI0
aI3
aI4
aI1
aI6
aI5
aI0
aI2
aI4
aI6
aI0
aI2
aI2
aI1
aI0
aI4
aI1
aI6
aI0
aI2
aI1
aI6
aI5
aI0
aI0
aI2
aI6
aI5
aI0
aI0
aI2
aI6
aI0
aI6
aI5
aI0
aI0
aI2
aI4
aI4
aI1
aI6
aI5
aI0
aI2
aI6
aI0
aI3
aI6
aI0
aI3
aI2
aI2
aI4
aI1
aI6
aI0
aI3
aI2
aI4
aI1
aI6
aI5
aI0
aI3
aI4
aI1
aI5
aI0
aI3
aI2
aI1
aI6
aI5
aI0
aI0
aI4
aI1
aI6
aI5
aI0
aI3
aI2
aI4
aI1
aI6
aI0
aI4
aI1
aI6
aI0
aI3
aI2
aI4
aI1
aI6
aI5
aI0
aI3
aI2
aI4
aI4
aI1
aI6
aI0
aI2
aI4
aI1
aI6
aI0
aI0
aI3
aI3
aI2
aI6
aI0
aI0
aI3
aI2
aI4
aI1
aI6
aI5
aI0
aI0
aI3
aI2
aI1
aI5
aI5
aI0
aI0
aI3
aI3
aI4
aI4
aI1
aI6
aI5
aI5
aI0
aI0
aI3
aI2
aI4
aI1
aI1
aI6
aI5
aI0
aI3
aI2
aI4
aI4
aI6
aI0
aI3
aI4
aI6
aI5
aI0
aI0
aI3
aI2
aI1
aI5
aI0
aI3
aI2
aI4
aI1
aI5
aI0
aI0
aI3
aI2
aI1
aI6
aI5
aI0
aI2
aI4
aI1
aI6
aI5
aI0
aI2
aI2
aI1
aI6
aI5
aI0
aI3
aI2
aI4
aI1
aI1
aI6
aI5
aI0
aI0
aI3
aI2
aI4
aI1
aI5
aI0
aI0
aI2
aI4
aI4
aI1
aI1
aI6
aI5
aI0
aI3
aI2
aI4
aI1
aI1
aI5
aI0
aI0
aI3
aI2
aI4
aI1
aI0
aI3
aI2
aI4
aI4
aI1
aI6
aI5
aI0
aI3
aI2
aI4
aI1
aI1
aI0
aI3
aI2
aI4
aI1
aI5
aI5
aI0
aI0
as.