(dp0
S'data'
p1
(lp2
(lp3
F2.200739782222704e-05
aF0.002068746485190517
aF3.308730751496539e-05
aF0.4673105399521472
aF0.039012119332033655
aF1.0
aF0.0014095969993202933
aF0.00021502213894457122
aF0.0001744836087861963
aF-0.0002631468771191596
aF-0.00036337975032461065
aF4.440325830226914e-05
aF0.00031871730064588405
aF0.0001725947550233919
aF-0.00012826800363333646
aF-9.646636389865919e-05
aF-0.0001441997077228985
aF-5.590419892313202e-05
aa(lp4
F3.983386233116012e-05
aF0.002894751591596034
aF2.764566400278178e-05
aF0.47192224624878387
aF0.10231134381262298
aF1.0
aF0.0008643566741960407
aF0.0017411251011471582
aF-0.0005579337515384846
aF0.0001638809777815449
aF-8.488590907618164e-05
aF-0.0006531919814984734
aF-0.00017345587195463516
aF-0.00016525261266104796
aF-0.00036715016777225475
aF0.0003041172103863224
aF1.904888825171474e-05
aF4.849688628008589e-05
aa(lp5
F3.14126543030336e-05
aF0.0033310976633580056
aF3.8333405550812436e-05
aF0.5295800829300717
aF0.07523231704820903
aF1.0
aF0.00045315698689114516
aF-0.00048062287024321207
aF-7.482171179036087e-05
aF-0.0002098044784911813
aF-0.0001177407705327805
aF0.00037950282556814297
aF0.00043005787572198697
aF0.0003313235806986813
aF0.00011604946422043608
aF0.00018980787562875045
aF-0.00031860866061752673
aF0.0001312891902654002
aa(lp6
F3.0227162206648e-05
aF0.00246157525350781
aF3.256435483706784e-05
aF0.451912786821587
aF0.09582651781846305
aF1.0
aF0.001841116137614587
aF0.0002049218885630405
aF0.00011535617663792668
aF-0.0001698696854780554
aF0.0005504357337894646
aF-0.0004193635949361683
aF0.00036633097020826697
aF-1.337501734750539e-05
aF-9.805387494543131e-05
aF-3.776348212574239e-05
aF-7.10805315651151e-05
aF0.0001857550599706742
aa(lp7
F4.624544343098063e-05
aF0.0027255724488720917
aF2.5161249220157554e-05
aF0.44114907123477604
aF0.1406026752845407
aF1.0
aF0.000639731077431271
aF0.0012705131611756464
aF0.00022012929605355535
aF-0.00048653621532044613
aF9.39259923600476e-05
aF0.00032496425348252513
aF-0.00027603654209460235
aF-0.00020474701879922124
aF0.00035018805348049627
aF0.00018123288215818765
aF-0.0001153789491042775
aF5.2542138644269155e-06
aa(lp8
F2.1461007564494146e-05
aF0.0015821117890227484
aF2.285668959926639e-05
aF0.41439024301607313
aF0.05970999111638326
aF1.0
aF0.0010450869226605608
aF0.0006950823150809166
aF0.00014786218670023363
aF0.00012487481630375948
aF-0.00013442661564335706
aF-1.8439773832836697e-05
aF-0.00013848608373392268
aF-0.00010235815430651677
aF-1.5773074013466115e-05
aF3.968604659660392e-05
aF0.00013558941225635533
aF7.596859253247361e-05
aa(lp9
F2.3164514209486603e-05
aF0.00254305315386927
aF3.848345349504819e-05
aF0.5012595908689328
aF0.05285722204560978
aF1.0
aF0.0011403674390117297
aF-3.640869654755324e-05
aF9.588194127501725e-05
aF-2.664375926702692e-05
aF0.0003985625590390041
aF0.00021768858712026924
aF0.00025737429519475215
aF-6.313383934256742e-05
aF-0.0002098385710940711
aF-0.0004853415176140047
aF-0.00023321490321671782
aF-7.837042437973448e-05
aa(lp10
F2.6129466054213966e-05
aF0.0023727985407052212
aF4.209890859996993e-05
aF0.5375639583782413
aF0.04126297800302095
aF1.0
aF-0.00013225086897138957
aF0.0002825394214080546
aF-0.000530121631397547
aF-8.995763178300987e-05
aF1.1416272595228449e-05
aF0.00022099345012296703
aF0.0003333919728243182
aF2.007929812881466e-05
aF-0.00016638534299994901
aF-0.00012929219852220994
aF6.141858814635684e-05
aF9.196190189055884e-05
aa(lp11
F2.431894212212541e-05
aF0.00189890881786554
aF3.634999004514567e-05
aF0.4340865917954164
aF0.05154761371488289
aF1.0
aF0.0007908694529856466
aF-0.0003897705734102801
aF-5.240149458881245e-07
aF-2.4569729845512854e-05
aF0.00018406177944768048
aF0.00031260944727465757
aF0.0002162382629839156
aF-5.8333559329844944e-05
aF-0.0002847315816768125
aF0.00021732389431320631
aF-0.0001575061618350596
aF-0.00010642370894042832
aa(lp12
F4.394000084678136e-05
aF0.0034970609398663056
aF5.307767327644636e-05
aF0.578447142565007
aF0.10962551277554117
aF1.0
aF-0.0001704124962420089
aF0.0012178343101779251
aF-0.0002563099264523175
aF0.00035155406733102917
aF-5.774515837579582e-05
aF-0.00025029183678263605
aF0.00020547734812801909
aF-0.0002980754210976483
aF-0.0007114085268922966
aF0.0003769506633064004
aF-0.00037171848579376843
aF-0.00011512639914598118
aa(lp13
F5.0906185690641916e-05
aF0.003456620838867978
aF4.3215528532240426e-05
aF0.5266217848040224
aF0.16206995767070548
aF1.0
aF0.002457118341206444
aF0.0004981647493441958
aF-0.00014322611250156678
aF-0.0002633027237553004
aF-0.00020836676984467827
aF-0.00015491558850096025
aF-2.0198446818135685e-05
aF0.00017422066683406602
aF-0.0002025441404110837
aF-4.722780360610837e-05
aF-0.00035293299905150865
aF-3.354551160592768e-05
aa(lp14
F5.285666977633389e-05
aF0.003712016143929022
aF4.135025571087971e-05
aF0.5295632014494642
aF0.1409803360201631
aF1.0
aF0.001874593697024963
aF0.0013500332328043796
aF-0.00042900932260361537
aF1.062122601196408e-05
aF-0.0007191238862269471
aF-0.0005506564372880976
aF0.0001537523886008936
aF-0.00018042514583303573
aF-0.0003005552235691017
aF-4.7375148903157816e-05
aF4.441793807899522e-05
aF-0.0004244483357223465
aa(lp15
F3.1573979180410315e-05
aF0.0023157362302539107
aF2.3430365748513633e-05
aF0.39454323276905573
aF0.10638976440626435
aF1.0
aF0.0016256598936824139
aF0.0011023518540640904
aF0.00021108807271261716
aF-0.0002155030086759169
aF-0.0005137260876319781
aF-6.945573384421532e-06
aF-9.251926736332094e-05
aF0.00017370594272575322
aF-0.0002881542340179601
aF0.0002028820532473736
aF0.0006136006243056329
aF-0.00012270962121362298
aa(lp16
F3.454254859151512e-05
aF0.0032424069047511717
aF4.658965393085854e-05
aF0.505796248292399
aF0.10812253591822886
aF1.0
aF0.00047496536978037645
aF-2.6236149605177213e-05
aF-0.00031980139049149817
aF-0.0006930600716980119
aF-8.937350836313892e-05
aF-6.025477458632546e-05
aF0.00025713759869969486
aF0.00013777796166968391
aF-0.00020209634304642893
aF0.00040959735405035695
aF-3.9213196262426286e-05
aF6.945975853313261e-05
aa(lp17
F2.180315396107513e-05
aF0.002558381588048028
aF3.130055423753845e-05
aF0.44067257084119665
aF0.08695453578815497
aF1.0
aF0.001799502623950326
aF-3.0493127858826487e-05
aF0.00020732156946661503
aF-5.983821064930758e-05
aF0.00022095438049100476
aF1.356397406399646e-05
aF1.82548394192272e-05
aF0.00032053240176880285
aF1.9617892232786045e-05
aF1.3065600413853531e-05
aF0.00013739072160988451
aF0.0002183080691713054
aa(lp18
F2.2943458609807225e-05
aF0.0028104776273447356
aF2.8171226869691617e-05
aF0.43293829554340313
aF0.09771373421759748
aF1.0
aF0.001888812514601483
aF0.00017541104714530875
aF0.00021092769292389962
aF1.8484773820146305e-05
aF0.00024737615896254245
aF-0.00027717082213052585
aF0.0004117846247371906
aF0.00043736922729916344
aF0.00014515411091674553
aF-5.356705031055446e-05
aF-0.00028496566875434284
aF-0.00029168317352796955
aa(lp19
F3.0400245563255806e-05
aF0.0031229978080497254
aF2.806702600190779e-05
aF0.41937329071829615
aF0.16223860369039567
aF1.0
aF0.0017045403852148006
aF0.00024044352213343026
aF-0.00021561940206212387
aF-0.00012209277280862807
aF0.00020135234099508844
aF-0.00014360089215954982
aF-6.599852636662683e-05
aF-4.921209748634985e-06
aF-6.641149340642082e-05
aF0.00016257593238633725
aF9.604114152926849e-05
aF4.036560588046437e-05
aa(lp20
F2.5001864131517833e-05
aF0.0026619794763505897
aF2.2359360495579308e-05
aF0.4304182082662416
aF0.13756421076860262
aF1.0
aF0.0019012693177523068
aF0.000885948348982311
aF0.0003233400157302887
aF0.00016057069746310262
aF8.093026809218646e-05
aF-0.00010022621081224061
aF-0.00015291910246106473
aF-0.00011988025728619037
aF0.00011045059712308262
aF0.000154598783530975
aF0.00019647141551478752
aF-5.733567528643768e-05
aa(lp21
F2.1586553008203547e-05
aF0.002800312339195064
aF3.9449495693688103e-05
aF0.47949820310052976
aF0.07908162972282065
aF1.0
aF0.000679016788792797
aF-0.0002866952248818164
aF-6.222686798729702e-05
aF-0.00017142985243105965
aF-7.780584199582429e-05
aF2.9048422030640426e-05
aF8.713419213103982e-05
aF-4.458447502873459e-06
aF-0.00014686895466880858
aF2.794726889101639e-05
aF-5.822698406779552e-05
aF1.5922967517301462e-05
aa(lp22
F3.11403351591966e-05
aF0.003838521388315926
aF4.4849385135172184e-05
aF0.5096794999064398
aF0.12233251418163223
aF1.0
aF0.0014238974604893918
aF9.237857751675798e-05
aF0.00035711581281880556
aF-5.070469545839554e-05
aF0.00038558075913417355
aF0.0002058300425919317
aF0.0003674244227276582
aF-7.665740254980502e-05
aF-0.0002507391238794874
aF-0.0001479726219044097
aF5.943125001723908e-05
aF0.00030277427974545733
aa(lp23
F2.3432113913362736e-05
aF0.002430639533276519
aF2.5999220853130173e-05
aF0.4429506698899178
aF0.07614402598666858
aF1.0
aF0.0010758714042518826
aF0.00036630587792233394
aF-0.00022039252994146498
aF-0.00011049018043099276
aF0.0001434864346538478
aF-8.016411193985948e-05
aF0.00015286740144442135
aF0.00019005756613851095
aF0.00012753048155232256
aF0.00017990092984192596
aF7.823887058940844e-05
aF-0.00022632761336370506
aa(lp24
F2.452758831631209e-05
aF0.002652366520401201
aF3.076536032602188e-05
aF0.45406658237834757
aF0.08594184938644382
aF1.0
aF0.001357177411548088
aF0.0004230806963655982
aF-0.00026825845205006606
aF-0.0003505255971119156
aF-0.0002061174384264152
aF-0.00011651497192805935
aF-4.320678041326212e-06
aF0.00014580549090436142
aF-6.226690934535938e-07
aF-2.2081417883024873e-05
aF0.00023882107390494015
aF0.00019905068508916602
aa(lp25
F2.896586179925255e-05
aF0.002544256697539499
aF2.2451943831130444e-05
aF0.43257709341922546
aF0.13455037981380585
aF1.0
aF0.002375278887473151
aF0.00025006756912579475
aF-6.70789417942773e-05
aF-0.0001052123145035041
aF-9.094089956737214e-05
aF3.562274984653655e-05
aF-0.0003820255005917205
aF-0.00020747903035632262
aF-0.00012977662501998898
aF4.004268004543668e-05
aF0.00037397584606884934
aF0.00037418890487325094
aa(lp26
F4.30861574594621e-05
aF0.0031287453162139804
aF2.7084350094557874e-05
aF0.4024743388835215
aF0.17274633636938921
aF1.0
aF0.001397392490899508
aF0.0015916523410204398
aF-0.00023566898158542692
aF-8.36959371472902e-05
aF-0.0003304106642293538
aF-0.00040413246137933055
aF-0.0005630676123359756
aF-0.0002678342608624361
aF-0.00023507013494689723
aF0.00011994201396817385
aF0.0001845921443070207
aF0.00014114971109415516
aa(lp27
F2.7402589649951102e-05
aF0.003022364425718525
aF4.48648931183287e-05
aF0.5228281607359238
aF0.06829237370936907
aF1.0
aF0.0009842371170435775
aF-0.00019749639606786483
aF-0.00020845816436747882
aF-0.0001781614129091659
aF0.00020723327415353941
aF8.14127974218448e-06
aF-0.00010228727573959838
aF-0.0006000926583498229
aF-1.0088958784110088e-05
aF-8.908250977963737e-05
aF2.042439552047878e-06
aF-3.360824850888111e-05
aa(lp28
F3.1469221736292806e-05
aF0.0031686431099084817
aF2.7529243957794968e-05
aF0.4530975455392388
aF0.1453529199978446
aF1.0
aF0.0019749578393762823
aF3.3704632204325617e-06
aF1.7286259121861223e-05
aF-6.194802845857007e-05
aF8.499660182472377e-06
aF-0.0002693441971874883
aF0.0004414739027112633
aF0.0002393587009401689
aF0.00021509236860264185
aF8.444709597845798e-05
aF5.565446486384137e-06
aF5.4906236402614694e-05
aa(lp29
F3.069461335017957e-05
aF0.00279682743717532
aF3.216187530562542e-05
aF0.4359173497576409
aF0.13733630418705242
aF1.0
aF0.0029595458011450067
aF0.0007885185379418895
aF-7.560681063063736e-05
aF8.122659203631197e-05
aF-0.00045617109145959256
aF-0.00029602959772425606
aF-7.780655970987768e-07
aF0.0001239388544264304
aF7.299479521294358e-05
aF-2.5500319434132096e-05
aF4.415066115941371e-05
aF1.662515772628521e-05
aa(lp30
F2.443318924776048e-05
aF0.002244887814586903
aF2.465742184137989e-05
aF0.42299472506327884
aF0.08917038681691924
aF1.0
aF0.0018110846388157875
aF0.0011496105126216091
aF-0.0003750027297706468
aF0.00010620789041545737
aF-0.00027766334390767706
aF8.906220254315753e-05
aF-0.00013838080254204946
aF-2.4805855348135088e-05
aF1.7647933661399592e-06
aF0.00024282385249426168
aF0.00011545958525082906
aF9.483996975408947e-05
aa(lp31
F1.975294590843375e-05
aF0.002248108325550424
aF2.222706327747399e-05
aF0.4402247002920647
aF0.077463655470017
aF1.0
aF0.0020980838350898663
aF0.0009145496065681909
aF-0.0003717477797011002
aF-1.555407284642292e-05
aF-0.00015359661003091834
aF-0.00034173807586313165
aF7.432171236575582e-06
aF0.0003480069959446994
aF-0.00011212619340308881
aF8.802997254386237e-05
aF0.00041374964640902536
aF8.004665862476994e-05
aa(lp32
F2.381842145549268e-05
aF0.002456898453998692
aF3.871190574154596e-05
aF0.4946008774982327
aF0.059126128967039365
aF1.0
aF0.0008128170342878265
aF0.0003048020678758639
aF0.0002538020017342265
aF0.0002515121655358482
aF6.255740870862591e-05
aF-8.494347755333251e-05
aF-0.00013343697573876007
aF-0.00021222027385796817
aF-0.0001800722935065642
aF-9.218423016156577e-05
aF0.00017144704009980127
aF0.00014712053714376934
aa(lp33
F2.001143881395999e-05
aF0.0023512642030558482
aF3.420378460995213e-05
aF0.4456487653519864
aF0.06453495321406102
aF1.0
aF0.0007939622346293464
aF0.00026992947889746115
aF-0.00023488128893980203
aF-5.916640005168936e-05
aF0.00013917082889121146
aF8.246377398748372e-05
aF0.0003367839224483077
aF7.492744159768967e-05
aF0.0003473082497310303
aF7.411046136909112e-05
aF-0.00030061048967044496
aF-0.00011417894309024674
aa(lp34
F2.5520088039920758e-05
aF0.003000485378288232
aF2.8461313910856494e-05
aF0.4309748815679525
aF0.11884135238965089
aF1.0
aF0.0016624995408091674
aF-0.00010184183074125392
aF-8.64535467837122e-05
aF-1.625499336094123e-05
aF-0.0002910183350705989
aF8.587365542635745e-06
aF5.5610891873659044e-05
aF0.00015493182204706207
aF-0.0001244618271113178
aF3.907204641102053e-06
aF-0.0001524221920990604
aF0.00011180445546946773
aa(lp35
F2.310209196737242e-05
aF0.002496791288013567
aF2.363668674676058e-05
aF0.3858472613896031
aF0.10385406543039405
aF1.0
aF0.002246752155872843
aF0.000508632582822918
aF9.633867450769739e-05
aF6.324589281151576e-06
aF0.00011829875504693503
aF-0.00015472056449795287
aF-0.0001659522999363233
aF7.866109633760276e-05
aF-0.00018520639767446816
aF0.0001575419427137168
aF0.00013858769603876945
aF0.00013565247125694142
aa(lp36
F3.0146359326181256e-05
aF0.003009622752502699
aF2.876714905622142e-05
aF0.41418548161807084
aF0.13431311386090997
aF1.0
aF0.0018831590476573968
aF0.0008206714995624507
aF-4.0136500427176275e-06
aF-0.0003434225654961611
aF-0.00037705984288584734
aF0.00021281061790416546
aF-0.000326103901686145
aF-0.00027895221489896777
aF0.00011621760668843761
aF-5.065316483383107e-05
aF-0.00024665318759527097
aF-8.56473010778134e-05
aa(lp37
F2.0170249758460724e-05
aF0.0028656576208411434
aF1.5548444733069525e-05
aF0.43459836142289016
aF0.12558947067468101
aF1.0
aF0.0023561407023952987
aF0.0002664256386657446
aF-9.802106919535831e-05
aF-3.7048634764449914e-05
aF-0.0001961867879380303
aF3.065656824989592e-05
aF5.8173952725029524e-05
aF2.1093556009952092e-05
aF0.0002751929801603161
aF8.39219755141784e-05
aF7.953542189242486e-05
aF4.215342898881145e-05
aa(lp38
F3.273411514188311e-05
aF0.0038339538503881004
aF3.642022999945088e-05
aF0.5037449981719688
aF0.14623193148365532
aF1.0
aF0.0012511261272508932
aF-0.00011998385825943059
aF-0.00011365723717133264
aF-8.445726020611251e-05
aF-0.0005266523746484058
aF-0.00044571182191188496
aF0.0006078422210252199
aF-1.6784846749526216e-05
aF0.0005277794405337696
aF-0.0002341190506845489
aF-1.4614695255473576e-06
aF0.0005714291654597267
aa(lp39
F4.72034092433146e-05
aF0.00472006360787731
aF4.2334676463404645e-05
aF0.5184322415319258
aF0.2714011958485692
aF1.0
aF0.003529866327867494
aF0.0019162377335207664
aF-0.000640025245072508
aF6.972858575439763e-05
aF0.00044521073285689136
aF-0.0006385481209484293
aF0.0004447594965317065
aF0.0003172396747163621
aF0.0006249836337001062
aF0.00044482965441324293
aF-0.0004245367217892
aF0.0001233528423428445
aa(lp40
F1.9411107537661167e-05
aF0.0022891803432406274
aF1.9169343372818544e-05
aF0.39917945538380306
aF0.10454547969212814
aF1.0
aF0.003411649450454236
aF0.00024514696792537187
aF7.671398845335349e-05
aF6.761108142255734e-05
aF-0.00016121042259158223
aF-6.685785293465032e-05
aF-5.335581821482377e-05
aF0.00011498160882600592
aF0.0002935796421262687
aF0.0002452597086184172
aF0.0002681760795982167
aF0.00012707794959888934
aa(lp41
F2.638162973541023e-05
aF0.003520252417660941
aF4.426972155296509e-05
aF0.5367702154067172
aF0.10131588429664055
aF1.0
aF0.0013445805288615715
aF-0.00019751174153543032
aF-0.0006361262932106207
aF3.7886117104880923e-05
aF-1.2189986003231978e-05
aF0.0005344022989444112
aF0.00014064670259999708
aF-0.00012687218465194235
aF-0.0003935787808313227
aF4.777507746351906e-05
aF0.00021132148718382607
aF0.0002983552426415372
aa(lp42
F4.0616630880596725e-05
aF0.003716802702427377
aF2.253982264926962e-05
aF0.4758620223401468
aF0.20913560817335547
aF1.0
aF0.003465872766691141
aF0.0003452787910975026
aF4.600761475799613e-06
aF-0.00029260388234013407
aF-0.00047476541107743396
aF-0.0001792120496200816
aF-0.0001382095685406371
aF-2.3600246499785354e-05
aF5.213075876899634e-05
aF0.0002049617942757931
aF0.00041760476998772497
aF0.000296021349522416
aa(lp43
F3.035119925967127e-05
aF0.0026982443872834694
aF2.396837989376222e-05
aF0.4209671344199691
aF0.12333833174497326
aF1.0
aF0.0011105824789022932
aF0.0015530862556361737
aF-0.0002121085580590227
aF-0.0003453566316611041
aF-0.00010727490924340401
aF-0.0002681949121449021
aF-0.0003681819216057448
aF2.0073743342785535e-05
aF-0.00022894135417388909
aF-0.00017345928405210187
aF0.00014840433926246397
aF-0.00011082968561475024
aa(lp44
F3.5860444677213006e-05
aF0.0032885937976201577
aF1.807178844808062e-05
aF0.4209307075379291
aF0.28787998716747315
aF1.0
aF0.0023794210651300147
aF0.000712582462029948
aF-0.0006464430556055551
aF-0.00022512402098409466
aF-0.00017874249729844682
aF0.00013418386512545
aF-3.719790134750535e-05
aF0.00018773961992446598
aF0.0003671432748337593
aF0.0002332293645601283
aF0.00022990059747607947
aF6.882815073148258e-05
aa(lp45
F2.5502141096440413e-05
aF0.0030005483706684218
aF3.6809465868028886e-05
aF0.533990382194682
aF0.07640270277380197
aF1.0
aF0.0009940678245932396
aF0.0008374445189066698
aF-0.0009717121908818881
aF-0.0002974661071365089
aF-3.220484632946448e-05
aF0.00011937452400410696
aF7.37479457058896e-05
aF0.00026555102024754024
aF0.00013827744809625375
aF-0.00021423164350952616
aF0.0002015055111278734
aF6.710765982262265e-05
aa(lp46
F2.0096330766925428e-05
aF0.0022159672000028304
aF3.239096177295327e-05
aF0.4712993630435302
aF0.059347719782504006
aF1.0
aF-0.0005356627965202858
aF0.0006377087058434936
aF-0.0003962908073070159
aF-8.46465102805582e-05
aF0.00021352496667252115
aF0.00012007834395766857
aF0.00021379846433316945
aF-1.5623711299472362e-05
aF-0.00020328103494590086
aF0.00013689693381185527
aF0.0002071735220593073
aF8.272686429791992e-05
aa(lp47
F4.061906976875038e-05
aF0.004261055095260171
aF3.289546536106851e-05
aF0.4610856417181139
aF0.24542160858465814
aF1.0
aF0.003299887608512088
aF-0.0003198205322727993
aF-0.00024355830803902615
aF-2.0420658018836957e-05
aF0.000350458696805661
aF4.654551226758641e-05
aF0.0002487697469049302
aF0.0003051637650884235
aF-0.0002395413019720111
aF-0.0003228431853863505
aF-0.0001348526443401093
aF0.00027027693860953055
aa(lp48
F4.2396267698087186e-05
aF0.0034170077659395905
aF2.7545199268594272e-05
aF0.4450166735526247
aF0.1937121797308961
aF1.0
aF0.001800052199457306
aF0.0009680245113905817
aF-0.00019466158757308123
aF-0.00040009693807190066
aF-0.0002906784364350921
aF-9.075480513915532e-05
aF-0.00016309676076489083
aF-5.8623939898026946e-05
aF0.00043537916407393175
aF0.00042579127377808567
aF-0.0003437995623435135
aF-0.00021082828417476326
aa(lp49
F3.413080792556429e-05
aF0.002649713965785836
aF2.798563716811892e-05
aF0.41844862455765724
aF0.12764228019852322
aF1.0
aF0.003742017592630571
aF0.0002823301794361679
aF-0.00010122300177925528
aF-0.00020161549389393068
aF0.00013602240170929028
aF-0.00028993187170697006
aF0.00022575475899933335
aF-0.00024148912085000676
aF0.00042817932920919934
aF0.00035753902695408787
aF-0.00021587856416210052
aF-0.00016572323949597822
aa(lp50
F2.798356649516463e-05
aF0.002782103907025096
aF4.0603972591623324e-05
aF0.5278755978772973
aF0.06682049885605633
aF1.0
aF-0.0004250195261810077
aF0.001014015117274731
aF-0.0004181949748039706
aF-0.00036338814738713724
aF0.00044985972818576835
aF7.398646883830548e-05
aF0.00018552169147689252
aF0.00025077704499768444
aF-0.00014598468586737845
aF-0.00021134299106217305
aF-0.00012123063598564413
aF0.0001162551160989672
aa(lp51
F3.30345328376039e-05
aF0.0035238929270474508
aF4.569494567073563e-05
aF0.5333727107123845
aF0.106613402183829
aF1.0
aF0.0007705326440979728
aF0.0008667033007464677
aF-0.0005024980973845894
aF-0.00010815754689017579
aF0.00031733101663456993
aF0.0005607958510545619
aF0.0005163575824499889
aF-0.00040750618433532497
aF-0.0002923132793822176
aF0.0002053774367234856
aF2.605610912821469e-05
aF0.00012519421640950495
aa(lp52
F2.0048781145357645e-05
aF0.002216094843718142
aF2.793686170832417e-05
aF0.5750229568021507
aF0.03225878326592186
aF1.0
aF2.1857244653882356e-05
aF0.0006221172497232585
aF0.0003893214656884644
aF-6.083260611887322e-05
aF0.00023659761255511938
aF-7.313229247770662e-05
aF0.00017338660027995035
aF2.9652289836603035e-05
aF-0.00015519070791734119
aF0.00042487777819049874
aF-0.00013294576312337754
aF0.0002575184560304114
aa(lp53
F4.006266058199078e-05
aF0.0027264793888109413
aF2.7140984531458537e-05
aF0.47161618870829275
aF0.13150923921387161
aF1.0
aF0.0029400793328432833
aF0.0011153957238734425
aF0.0006278187988031741
aF2.1363274549488513e-05
aF-0.00023774790801190466
aF-0.0005084343794773394
aF-0.00039113129690562755
aF-0.0004083802951147194
aF-0.0002912849719825141
aF-5.088056110186072e-05
aF-1.0799071946698368e-05
aF-6.667311668420452e-05
aa(lp54
F1.819734783866047e-05
aF0.00230571464443939
aF4.215443819713788e-05
aF0.5229341628011784
aF0.03012586235573612
aF1.0
aF0.00048072605965872794
aF0.0005167876629833521
aF0.0001443148677863977
aF7.538402071098286e-05
aF0.00011699199651707146
aF-0.0002007264945229998
aF3.4284028254887185e-05
aF7.695691934930804e-05
aF9.023078804462068e-05
aF-4.8450351522072984e-05
aF0.00016439200247417258
aF-0.0003715604801834336
aa(lp55
F2.344244125550629e-05
aF0.0023700318432084097
aF2.9012861903905146e-05
aF0.4853898467182754
aF0.05215906523441648
aF1.0
aF2.5876618184918312e-05
aF0.0007602007223408467
aF-0.00013891155100188122
aF-0.0002588559816227925
aF-0.00014789512235846705
aF5.5674688156449416e-05
aF5.199407235722331e-06
aF0.00020871768068479876
aF-4.2442426252967985e-05
aF9.276577376328102e-05
aF-2.7883572939901387e-05
aF4.9071050718622964e-05
aa(lp56
F2.2319722416019496e-05
aF0.0016764089097211195
aF2.6922512132957916e-05
aF0.40291919718252545
aF0.04673191206300624
aF1.0
aF2.458661027561199e-05
aF0.0011756645529955466
aF-0.0002597026584267565
aF0.00011049935366816156
aF5.501715328358496e-05
aF-1.0796635758951861e-05
aF-6.744336718751832e-05
aF2.8532032066855102e-05
aF-0.00023495839006313054
aF2.7726003949374273e-05
aF0.00010565215955156782
aF0.00013021900239975506
aa(lp57
F5.696009628959e-05
aF0.0032665770513460764
aF1.960741062964498e-05
aF0.4078610378452386
aF0.2248018058453982
aF1.0
aF0.0032260458113120907
aF0.0012041181276709737
aF-0.0003287867456103953
aF9.654646575200518e-06
aF-0.0003704232679410045
aF0.0001555650069604205
aF-0.0001348511090879704
aF0.0002530509379854158
aF-0.00031291228928808507
aF5.2015231583490085e-05
aF-0.0004477761517208074
aF3.439725962698303e-05
aa(lp58
F3.1544069726885806e-05
aF0.002004449804352476
aF1.6456185903896874e-05
aF0.39577206054127834
aF0.09959966051909813
aF1.0
aF0.00143114163924336
aF0.0007648959848644163
aF0.000190460391960048
aF-0.00021316887125826675
aF-0.0001376603594387312
aF-3.7561920232098546e-05
aF-5.298721664306536e-05
aF5.483815728314529e-05
aF-1.7189153335909387e-05
aF0.0002193076672023586
aF0.00018867855476796977
aF-6.392184233562794e-05
aa(lp59
F1.711011446241649e-05
aF0.0021171064247484674
aF3.1298252346405644e-05
aF0.46643977938408987
aF0.03202345376191855
aF1.0
aF0.0006023153581093584
aF0.0003050107878136991
aF1.8333618629250727e-05
aF-0.00045840751349476605
aF-1.3864943421638106e-05
aF0.00010034346471060698
aF-0.00012550464010479856
aF0.00023818648152947725
aF5.086906967039406e-05
aF-3.342072430057169e-05
aF-1.951322080541526e-06
aF0.00026219365220342677
aa(lp60
F4.0151061578996075e-05
aF0.0029024985362227067
aF3.652587527704917e-05
aF0.5161782391958268
aF0.10409760151859782
aF1.0
aF0.004195746115959845
aF-0.0011689203702229714
aF-0.00011513147591441932
aF-9.160957281861802e-05
aF-0.0001305101391446375
aF0.0002715802112661826
aF0.0002954749240330791
aF5.3143798723168804e-05
aF0.00014073134802678326
aF0.0002446458786348092
aF-0.00020908013529294717
aF-9.299708455377863e-05
aa(lp61
F2.7947549021411333e-05
aF0.0021301601327303296
aF2.10610980035741e-05
aF0.41271903317267333
aF0.08300395777276244
aF1.0
aF0.001760420579408442
aF0.0007897390508920622
aF0.00035675149387916395
aF0.00011307847979735653
aF-0.00027076048851198286
aF-0.00013698324826575718
aF-0.0005201945384024531
aF-3.3056882277839406e-05
aF-0.00041165876821800903
aF0.00016396569429623958
aF0.0002453702229269178
aF4.4878295627208314e-05
aa(lp62
F1.7364952843538614e-05
aF0.0028080546594173735
aF3.661140040179837e-05
aF0.49751353349827404
aF0.03536435923618479
aF1.0
aF0.0020653502575750738
aF-0.0005072675753072258
aF0.0003352119693980383
aF-7.315918043096763e-05
aF-8.370017138223425e-05
aF-1.0155610195619948e-07
aF2.516560888930611e-05
aF8.98057492249402e-05
aF-0.0001916010866089531
aF8.669714163875072e-05
aF-1.8048523479011373e-05
aF6.40158253398822e-05
aa(lp63
F4.1270147716814634e-05
aF0.003976734657912737
aF5.18342761721078e-05
aF0.5819478350062862
aF0.11834837260571128
aF1.0
aF-0.00016359799889404
aF9.554678789599967e-05
aF-0.0004886616135184695
aF0.00033942633231109237
aF-0.0003509600900176988
aF0.0006592866053310532
aF-0.00018055897582760138
aF0.00013885591281238258
aF-3.874162646975948e-05
aF0.00041443949315175593
aF-0.00016967949715620867
aF0.0001389150813354481
aa(lp64
F2.633599288679845e-05
aF0.0024166198322913123
aF3.064720209106568e-05
aF0.42472566041896387
aF0.11904904746711854
aF1.0
aF0.0008628254494519215
aF0.0005485322999942721
aF-0.0003857081367739984
aF-3.868376308666945e-05
aF8.753674952195969e-05
aF0.00027297682534493646
aF0.0002529132882728166
aF0.0003022616123520989
aF-8.537657095104174e-05
aF-1.1021535818249306e-05
aF-5.58970371516265e-06
aF0.0001257747701388105
aa(lp65
F3.399134377868825e-05
aF0.003114850324238635
aF3.18519375835353e-05
aF0.42092059726887116
aF0.20130931361814658
aF1.0
aF0.00509356805435357
aF0.00020867223118572296
aF0.00046862581090047667
aF-0.00018614023927829854
aF-0.00029309687644773244
aF-0.0006078194877035187
aF1.601768741687385e-05
aF0.00025611393913548984
aF8.335018269422504e-05
aF0.0002575361267309319
aF-8.032722573199823e-05
aF8.935125595727437e-05
aa(lp66
F3.8559783621823004e-05
aF0.0034364696592219597
aF1.96385383776862e-05
aF0.4603746024484636
aF0.3240019469974503
aF1.0
aF0.00273042965463683
aF0.0006080383675817991
aF0.00037482434719810615
aF-2.4218782304960592e-05
aF-9.341381803965028e-05
aF0.0001817150521605126
aF-0.0001271130562970011
aF-8.148941837926867e-05
aF-7.53025781922975e-06
aF4.251274923429968e-05
aF4.699046031030393e-05
aF0.00017621654754124057
aa(lp67
F1.352342742852256e-05
aF0.002050723992041441
aF3.731632769110737e-05
aF0.49519119280182444
aF0.02963113128158011
aF1.0
aF0.0004828654703159658
aF0.0004701075821541381
aF0.00031305981142054173
aF-0.0003217481612431653
aF-4.1120095890755154e-05
aF-0.00014115988852243252
aF0.0002602936557106805
aF-6.328652526185834e-05
aF0.00017530806035378322
aF0.0002661164903071957
aF0.00036653545581147285
aF0.00019967694216114847
aa(lp68
F2.4633104832158694e-05
aF0.002341611751546849
aF3.7134991897078105e-05
aF0.5680934791222704
aF0.0603397556358197
aF1.0
aF0.0005656808969255091
aF0.0006446630129230208
aF-1.9575138024539573e-05
aF-0.00032715073787955575
aF7.905229397925786e-05
aF8.890827300262864e-05
aF0.0004941141585584985
aF0.0002287199435036036
aF-3.171282448970405e-05
aF6.377141660182982e-06
aF-0.000370718080832874
aF0.0001461486245357711
aa(lp69
F1.9103052777643492e-05
aF0.0018291341141358026
aF2.858327618644163e-05
aF0.5448035958605904
aF0.03830618073516128
aF1.0
aF0.0003848341112453411
aF0.0005297725458998833
aF-5.268893040804577e-05
aF-4.231774492344469e-05
aF-4.681698421840884e-05
aF-0.00010991776584497237
aF0.00012413502731122418
aF0.0003147521598171891
aF0.0003233108842517535
aF0.0002263455245284204
aF0.00010537543646846204
aF-3.0392045177872646e-05
aa(lp70
F4.0830035525461486e-05
aF0.002764200170370455
aF2.851245240222478e-05
aF0.4081827653229072
aF0.1797879200072822
aF1.0
aF0.0027064128502299243
aF0.0002750242766175652
aF-0.00013438432869026615
aF1.600948556748575e-05
aF-0.00013053191354284657
aF-7.850425483363817e-05
aF-3.3459024222975635e-05
aF0.0006207463099117707
aF-0.0003907200039481055
aF-0.0003329120394790927
aF-0.0003533648916522527
aF-0.00016082907738574037
aa(lp71
F3.093266478878633e-05
aF0.0020990625213079344
aF1.9688557146423068e-05
aF0.45199006300378425
aF0.13346193045269236
aF1.0
aF0.0016187306390977895
aF0.0011181067059800106
aF0.00018883858534549092
aF-0.00018640378563967975
aF2.5276334290378765e-05
aF-0.00010202490473179168
aF-0.0002679440510715783
aF9.240569213439645e-05
aF-0.00014561196562088932
aF-2.4052814014705877e-05
aF-0.00023726383716216073
aF0.00011250896318904243
aa(lp72
F1.856321163838726e-05
aF0.002045643851887811
aF4.8405404735942564e-05
aF0.513703573955098
aF0.03058222002681399
aF1.0
aF0.000737838092856206
aF0.00015443924630546198
aF-0.00010745296457457723
aF-0.0003118715519755685
aF0.00025802030061208766
aF-0.00018024024356134413
aF0.00010190281654502168
aF5.654701472077754e-05
aF-7.67919770912261e-05
aF7.744047104205805e-05
aF6.761763579983262e-05
aF-0.0003025318517591548
aa(lp73
F2.6540991419543345e-05
aF0.002326585302413948
aF3.2816126283948155e-05
aF0.4488202096206134
aF0.10256547011631433
aF1.0
aF0.0020079338739460773
aF-0.000411097867295113
aF-0.00010686033631843219
aF-4.990097921101208e-05
aF-9.966944619536405e-05
aF4.234182546791852e-05
aF8.102359421774861e-05
aF0.0003007357719356343
aF6.063444509664757e-05
aF0.00016006573039915637
aF0.00031657093495844553
aF0.00011865690321256187
aa(lp74
F2.0404170338491803e-05
aF0.0022524501999346635
aF3.1405719213583744e-05
aF0.4729869653187755
aF0.0616670778519604
aF1.0
aF0.0017183366875276687
aF-4.5215392640999005e-05
aF-0.0005234560639952972
aF-0.00042057268556216007
aF0.00010033530441575237
aF-0.00039269292229626804
aF-6.662811029147346e-05
aF0.0001130265779156148
aF7.519798477548627e-06
aF0.000316680059126687
aF5.584580210095046e-05
aF0.0001470405551578922
aa(lp75
F2.8493444680384088e-05
aF0.0023393422572315263
aF2.834492050637148e-05
aF0.3986914506699385
aF0.13352368096042025
aF1.0
aF0.001750857694249587
aF8.546826082261481e-05
aF0.00013733383742717663
aF6.259979947813836e-05
aF-0.0002574545539708508
aF-0.00019628992832186495
aF9.732545755613382e-05
aF1.4367319660521426e-05
aF-7.711604917981063e-05
aF-0.00013263039307821146
aF9.908887966651324e-05
aF0.00019678019172857886
aa(lp76
F3.829859726086064e-05
aF0.002437961863393032
aF2.6359641724755213e-05
aF0.41294576590940957
aF0.15408862088893263
aF1.0
aF0.0057254695984955166
aF0.0015297745460261514
aF-0.0005808553414498092
aF0.00016388815560425482
aF-0.0002789399661431771
aF-0.00010075380458855403
aF-0.0001204369553954345
aF0.0002668009508999757
aF-0.0003537255518113699
aF0.00015388126454585473
aF-0.00011583588881025145
aF-0.00032279668829752437
aa(lp77
F2.841378861440035e-05
aF0.0027165620502556803
aF2.399010884668624e-05
aF0.4275666048188607
aF0.1412390447691907
aF1.0
aF0.0012240937435021998
aF0.0004020554716848625
aF0.0005069627835908517
aF-0.0002950847174145727
aF-0.00021843559377004646
aF4.937096088261048e-05
aF-0.00017813386311718425
aF0.00031389522114440174
aF0.0001798075308401915
aF-0.00014261571164371698
aF-2.3120788480443686e-05
aF6.184188945005261e-05
aa(lp78
F5.081139900053572e-05
aF0.003986486195351711
aF1.9130516219540514e-05
aF0.3960772491409062
aF0.34986604556123174
aF1.0
aF0.002398561060019287
aF0.0012911091322111666
aF0.0002730588617334102
aF8.605396577963648e-05
aF-0.00013829606950051322
aF0.00022092672468878015
aF-2.9064690104692686e-06
aF-0.00013543403624016135
aF0.0001002314984188146
aF7.117528783284168e-05
aF-0.000393888686492945
aF5.6356904525329285e-05
aa(lp79
F4.413517774409252e-05
aF0.003730654403196025
aF2.6353654444692998e-05
aF0.39928346299272705
aF0.2898956899509868
aF1.0
aF0.0032902877294827796
aF0.0006746870130372988
aF0.0006588579272266429
aF-0.0005001382690390947
aF4.592444595988933e-06
aF-0.0003450161440225752
aF-0.0001155820171579094
aF-0.000380648011145787
aF0.00015693317094245726
aF-0.00025602411754005856
aF0.00030728869045750645
aF5.549449388534153e-05
aa(lp80
F2.3687933575686872e-05
aF0.002880020830939127
aF4.9378321240785716e-05
aF0.5474863896921427
aF0.06437313013665272
aF1.0
aF0.0008135952787906815
aF-4.170218146518451e-05
aF8.723037517741492e-05
aF5.937261822972042e-05
aF5.727274514275533e-05
aF0.00017409084393841889
aF0.00015153285398526254
aF8.150104813342259e-05
aF1.5113314008322768e-05
aF-7.406713085327648e-05
aF-5.223209507087642e-05
aF-0.00012954664672283213
aa(lp81
F5.0492395362916814e-05
aF0.0047746472628180485
aF2.5817095829755244e-05
aF0.42791759450589234
aF0.4113065518454101
aF1.0
aF0.003149950163696965
aF0.00011587404672679966
aF0.000386849553488797
aF-0.0006533680878247496
aF-0.00024084429825315846
aF-0.0005570043082854147
aF-0.00014705890400567787
aF7.678344158640049e-05
aF-0.00028641556150750384
aF0.00029973012631382345
aF-6.411493598717152e-05
aF-0.0006810389420078191
aa(lp82
F3.6456974754616254e-05
aF0.0026695891513471622
aF1.3467640964142038e-05
aF0.39488657436477914
aF0.3128967977421413
aF1.0
aF0.0037228011477449716
aF0.0004848252293744988
aF0.0005529805387759268
aF0.0002106064784324306
aF1.731704512827028e-05
aF-0.00020114496789546093
aF-0.00017750794361050072
aF-3.479050255731386e-05
aF-0.0001849778974452357
aF-5.781645300652218e-05
aF-3.2925610309397726e-05
aF6.376958691755523e-05
aa(lp83
F3.8991547438104986e-05
aF0.005565309067322841
aF5.363006795859114e-05
aF0.6326877527257551
aF0.2449562625199421
aF1.0
aF0.0035922754919955877
aF-5.145895822634608e-05
aF0.00024353637365963506
aF-0.00015025532946140417
aF-0.00029523618421675144
aF-0.0002473193853954265
aF0.00022085557675986944
aF7.47274928479723e-05
aF0.00019101834453396675
aF-0.00012551425741445422
aF0.00026094499229117933
aF-2.9547425487217582e-05
aa(lp84
F2.4111265081943755e-05
aF0.0021706319480017757
aF2.2247559600172115e-05
aF0.4426114357211345
aF0.07371897023289452
aF1.0
aF0.0027254597868417328
aF0.0007077988295734034
aF0.0002275845000168126
aF-0.0001910308063580289
aF-9.622337960251907e-05
aF-0.00020208921085156277
aF0.00024663301229638343
aF0.00020180773218451446
aF0.00019715334694332754
aF-2.4565938941496584e-05
aF0.00020775743911439652
aF-0.0001466118294499169
aa(lp85
F5.626122817952074e-05
aF0.004222042878815899
aF2.2586127791882833e-05
aF0.4148009608163542
aF0.4204815406156429
aF1.0
aF0.0030592472876372527
aF0.0010383228417755095
aF0.00034039561924247306
aF-5.49710207716093e-05
aF-8.294455238792517e-05
aF-0.0003077001872010372
aF-0.00011365289572499686
aF-0.00023428974676994343
aF0.0003772991327385561
aF-0.0001670774904485324
aF-0.00015772376639996795
aF-0.00010568123563085752
aa(lp86
F2.3265195665330196e-05
aF0.003145326315039295
aF4.161260743901244e-05
aF0.5581188767747065
aF0.07100402385531676
aF1.0
aF0.001615318246788543
aF0.00011897818383635347
aF0.0006068342197759852
aF-0.0002355278464434102
aF-0.00011522536787578698
aF-0.00018236637015687458
aF0.00025893364696647706
aF8.815111105909809e-05
aF-0.0002745437920012239
aF-0.00012546258154739348
aF-0.00011649987201892397
aF-0.0004403797221453082
aa(lp87
F3.8175581119624826e-05
aF0.0034250830086141083
aF3.520795659322854e-05
aF0.5286605921026396
aF0.13161297072564274
aF1.0
aF0.0007594818990835555
aF0.0015422048467162246
aF-0.00022208521527762148
aF-0.0002542207783503542
aF0.0003746178561713793
aF-0.0001714322749772597
aF7.836840367406171e-05
aF3.661138712608973e-05
aF0.0004929740439925367
aF-0.00027108621133265903
aF0.00016717368740553685
aF0.000551721582507189
aa(lp88
F3.38256366314479e-05
aF0.002512952106513411
aF1.316788266888022e-05
aF0.36291441559486687
aF0.16977325296748844
aF1.0
aF0.0016018138007737838
aF0.0008377561995166131
aF-0.00017307582406484196
aF-3.809701840646817e-05
aF1.3918864078012293e-05
aF-8.552345949339288e-05
aF-9.946292702919259e-05
aF0.00011237961040958186
aF-0.00027763470758050137
aF-5.4845768882716584e-05
aF-0.0001615365309876179
aF0.0001348663584281902
aa(lp89
F1.7524797915576453e-05
aF0.0021467515241117415
aF4.494987343800323e-05
aF0.5809197139551923
aF0.029900793526225166
aF1.0
aF-0.000925025318281894
aF0.0008226884771834303
aF-3.347076879280987e-05
aF-0.0002989034276491701
aF-0.00022444584371673703
aF-6.463002463692063e-05
aF-0.0002080783129264391
aF0.0003285803769785435
aF0.00033207462254707196
aF-3.782736960844491e-05
aF-0.0003912200634834524
aF3.2209941882274e-05
aa(lp90
F2.5487883709597437e-05
aF0.00225053049907335
aF2.4892900360012117e-05
aF0.45814062120791094
aF0.061114897735195725
aF1.0
aF0.0010678303138955771
aF0.0009546093907703226
aF0.0002039628123261971
aF0.000164048795504713
aF0.00011456608346080015
aF-0.0002304845375140866
aF-0.00019192456768262595
aF8.813005297549411e-05
aF-0.0001703377939936598
aF9.249840014793616e-05
aF-5.830248841120064e-06
aF0.0001412629699402007
aa(lp91
F2.3740178889722056e-05
aF0.002022119673397413
aF2.311084844542641e-05
aF0.47352475104295605
aF0.05242029512533321
aF1.0
aF0.0013320441621230549
aF0.0004972327070373908
aF0.0003111246924431073
aF4.60098792582519e-06
aF-0.000110284001928345
aF-0.00022377514827094127
aF6.149359351357757e-05
aF0.0002338320094875908
aF0.0001665379595973196
aF8.779338952600386e-05
aF0.00015751511442358028
aF1.9730420506485405e-05
aa(lp92
F5.2748558594983844e-05
aF0.0035614905685410927
aF2.8358680073807766e-05
aF0.4964671513859451
aF0.26405540926307436
aF1.0
aF0.0030409493280423865
aF0.0003910330537475608
aF0.0004980177480245797
aF-0.00018198436815181304
aF-1.6942139839571768e-05
aF0.00017333782043855468
aF-0.00016806012619521038
aF0.00010590534195322566
aF0.0005407505797861824
aF-5.1674621010270545e-05
aF-0.0005100857946805427
aF-0.000147080233756108
aa(lp93
F2.349803462901751e-05
aF0.0017996790334423572
aF2.2021400590489133e-05
aF0.460303159967945
aF0.041885811518795
aF1.0
aF0.0016514053688034577
aF0.0006775734690231961
aF1.7045496793757347e-05
aF-0.00011073202124090576
aF-0.00020388311408162273
aF-0.000423319144268021
aF-8.551435330372157e-05
aF-0.00016428335545766196
aF0.00021144655555669264
aF0.00041958930294205555
aF0.00042713216478596795
aF8.359505945853456e-05
aa(lp94
F2.4871580816156038e-05
aF0.002608668140756231
aF4.2826696753027696e-05
aF0.5782585335829192
aF0.04436674817816852
aF1.0
aF-0.00043143947007236497
aF5.881161730780387e-05
aF-0.0006310533271336368
aF4.1839658778791274e-07
aF0.000340398298091251
aF-0.0002077020247838136
aF0.0004262088738498221
aF0.0001931940154354833
aF-0.00053891737916902
aF0.0001813541759781514
aF-0.00019375466887622475
aF0.0003429917307148167
aa(lp95
F3.01729556269269e-05
aF0.002647674637559934
aF2.1253976920812134e-05
aF0.4336816873684216
aF0.1158539881417762
aF1.0
aF0.0023257378099782087
aF0.0009684068169990112
aF-0.0007624356726375692
aF-0.000235415142298777
aF-2.9838024971904217e-06
aF-0.00026273776195017117
aF0.0001793958539456398
aF2.607664598433745e-05
aF-0.00013542883639514202
aF-0.00024241444697710744
aF-1.5383307548214653e-05
aF-0.00011692365311078799
aa(lp96
F2.08594131054128e-05
aF0.001855047669709324
aF2.4810236715025583e-05
aF0.3880350046366957
aF0.04621196864379603
aF1.0
aF0.000561137799071364
aF0.0004976832139784845
aF0.0002035537423720193
aF0.00043056949655855757
aF0.00029752868720865324
aF-0.00038639671447756983
aF0.00011355610831339938
aF-0.00013498616714542608
aF-0.00019057711935791566
aF3.424681922615145e-05
aF-0.0001078585188271228
aF0.00016001348040301273
aa(lp97
F4.993979000896522e-05
aF0.0027259814765821454
aF2.005688648934571e-05
aF0.38131424340067743
aF0.20400053214019778
aF1.0
aF0.0036461172274853204
aF0.0006985267545086367
aF0.0002807258882267067
aF-8.001310472329767e-05
aF-7.707764627189224e-06
aF-3.998565552012755e-05
aF-0.00033964000674896873
aF-0.0004071090511808619
aF-0.00012662774836873846
aF-0.0004882798297771372
aF-0.0002001285020289034
aF5.6656640200239204e-05
aa(lp98
F1.8520544568146265e-05
aF0.0013162162332631384
aF2.3256300352376778e-05
aF0.4096215218408752
aF0.027480913929654634
aF1.0
aF-3.081650195251027e-05
aF0.0009195140099687387
aF-0.00017767239472642898
aF1.8318165323201977e-05
aF5.959835465101486e-05
aF9.285027218837324e-06
aF9.142629113936259e-05
aF0.00011181727171356239
aF1.5714297769179727e-06
aF5.8856480847182045e-05
aF0.0004977449329719943
aF0.0001410767361175269
aa(lp99
F2.4476879301837574e-05
aF0.0015256266164705484
aF2.1980808590786053e-05
aF0.4101205630963524
aF0.08780533816270623
aF1.0
aF0.002358887423889548
aF0.000286035358976024
aF0.0001431404010886074
aF-0.00018554963431138656
aF-0.00019592768859254744
aF-4.258934149701214e-05
aF-0.00012646073070291075
aF-3.9428142881504225e-05
aF0.00019318893075646133
aF0.00024199809872112106
aF0.00026604408867362097
aF0.0002521773538854567
aa(lp100
F3.086973220282489e-05
aF0.00319531343217898
aF4.895495804045491e-05
aF0.5770925706014274
aF0.08927320973982755
aF1.0
aF0.0008685131894408868
aF0.0012453066340257575
aF8.761549266562708e-05
aF-8.714146492346455e-05
aF-0.0007064220493167839
aF0.0003958575777032471
aF-0.00023717962120415703
aF-0.0001577241153713062
aF-0.00037059327624080866
aF-0.00018185417338070832
aF4.9605297203746345e-05
aF-0.00022140569148335363
aa(lp101
F2.386363547658384e-05
aF0.0019168354501667283
aF2.510979644399395e-05
aF0.4286659587281794
aF0.04632300428206028
aF1.0
aF0.0006363610178341915
aF0.0005811313480900981
aF-0.0005351107821907531
aF8.234078512440333e-05
aF3.975566907401698e-05
aF-0.0002504411498803273
aF0.00033351741400001875
aF0.00043643565556273625
aF7.440266428373583e-05
aF0.0001223280916943412
aF9.56126445072545e-06
aF0.00020773698462301778
aa(lp102
F3.925231820479672e-05
aF0.003325827148408232
aF4.4068603388355555e-05
aF0.6022679531047623
aF0.0903710248906222
aF1.0
aF-0.0002379027021290316
aF0.00021942681924938052
aF-0.0008891329801449812
aF0.000145254018304915
aF-0.0004535375694351899
aF0.00013680830254283135
aF0.0007384439906259788
aF-0.00038432126098356876
aF-0.00021654051462712253
aF0.00010282805061682872
aF-0.00031981456663027436
aF-0.0002939225496579545
aa(lp103
F2.8833552436020774e-05
aF0.001896786816868807
aF1.9467412711357038e-05
aF0.39289356551140664
aF0.0734818998273615
aF1.0
aF0.0023869352664654606
aF0.0015361427826014453
aF-2.245747542310515e-05
aF-6.909746946258501e-05
aF-3.8691696942789104e-05
aF-3.9995790476531615e-05
aF-0.0005109440337185525
aF-0.00011060060958432214
aF2.345513389174369e-05
aF0.00017441504962042886
aF6.391482901986632e-05
aF0.00012532413396857382
aa(lp104
F4.852394872487895e-05
aF0.00468738393015477
aF5.4519427376910064e-05
aF0.6083966910647022
aF0.21345173751506127
aF1.0
aF4.404994606403768e-05
aF0.0006423083709233958
aF-0.0001668723797695747
aF0.0002171288095234806
aF4.949044523172022e-05
aF0.00026812826651640114
aF0.00030433568527661657
aF-0.0008220912849230231
aF-0.0001560057308165203
aF0.0005620020166827638
aF4.4825379309698504e-05
aF-0.0001858207092522419
aa(lp105
F2.7561981258116722e-05
aF0.0028115124210608728
aF2.8087437901171122e-05
aF0.41175727227984654
aF0.12605291615002373
aF1.0
aF0.0006125349132262416
aF0.0006767829952861283
aF-2.60753452237109e-05
aF-0.00036709551192742353
aF1.8976901306387085e-05
aF-0.0002744588683612887
aF0.000318484924159851
aF0.0005558664096304985
aF0.00012550135432347323
aF-7.338257325445516e-05
aF-0.00014037325142747547
aF-0.00021852798460347275
aa(lp106
F2.2190593560198895e-05
aF0.0027173259983795596
aF3.0700946173221126e-05
aF0.4142317217185303
aF0.09742976137545717
aF1.0
aF0.0014471285582483258
aF0.0006909088464138124
aF-0.0003412696909654416
aF-0.0001715307081102161
aF0.00014722108147822302
aF0.0002855094876979398
aF0.0005048097085639443
aF0.000306310546129953
aF0.0001317736658741929
aF-6.735573140096922e-05
aF4.513972258794682e-05
aF8.740278583044255e-05
aa(lp107
F2.2800703629719392e-05
aF0.0031429480841399324
aF3.0857366033684204e-05
aF0.4454179286138193
aF0.10515495810852328
aF1.0
aF0.0017936299768999452
aF0.0006296095676028225
aF-0.0005064743926757045
aF8.331303954455198e-05
aF0.00011760310190408797
aF-0.00010063079881758249
aF0.00043409955712372673
aF-0.00010698341361258884
aF3.443205105319684e-05
aF-8.850865095639886e-05
aF0.00016787168580599155
aF6.829446026303855e-05
aa(lp108
F3.255167494791137e-05
aF0.0031614489421498593
aF2.459615651732316e-05
aF0.40620033369875985
aF0.2552581883258372
aF1.0
aF0.0026844798604166503
aF0.0012876823736676073
aF9.140122933075186e-05
aF-1.0527407593743095e-05
aF0.00025257558366033637
aF-0.00014692605961785175
aF-0.0003230237050069074
aF3.129101124420516e-05
aF-0.00014728566402115827
aF-0.00010452599468384422
aF0.00022793515513388538
aF0.00025506905219076063
aa(lp109
F4.023619993007842e-05
aF0.003636841573459869
aF2.281773362347636e-05
aF0.411826980491224
aF0.2599140173335052
aF1.0
aF0.00378409395848041
aF0.0004921747112354554
aF0.0003790260104085812
aF0.00018402361589366502
aF-2.3303212360752488e-05
aF-0.00012049599213729638
aF-0.00010517055307240258
aF6.48518984269947e-05
aF0.0002709481705722084
aF0.0002101154452759929
aF-0.00029063554061947163
aF0.00016866889644002022
aa(lp110
F1.8706106045223757e-05
aF0.0023321476578781414
aF2.129021113991421e-05
aF0.41455012341337766
aF0.11898379386770291
aF1.0
aF0.0036099448753494578
aF0.00037533623493231675
aF0.0002759919632711622
aF-6.123815790679136e-05
aF-0.0001481683033074628
aF-0.00021136434240514972
aF-0.00024218888271248417
aF-9.674421967837133e-06
aF6.47674756302982e-05
aF0.0001689279502497755
aF-2.8650869647903178e-05
aF1.5842598798018712e-05
aa(lp111
F2.3458018595600057e-05
aF0.0028588241811732264
aF3.14471030906859e-05
aF0.42400721791378987
aF0.12315446278952223
aF1.0
aF0.000941599342973649
aF-0.00027844852931474334
aF2.3696791967401213e-05
aF1.6220752548195225e-05
aF0.00011998683626531783
aF-0.0001581470029578031
aF3.288671966201453e-05
aF-1.5559220482844338e-05
aF-7.446559242056692e-06
aF5.495703809155786e-05
aF3.173520533383192e-05
aF-8.505610406458242e-05
aa(lp112
F2.7726986764442938e-05
aF0.002362668094588109
aF3.1414644583992465e-05
aF0.4258870145929776
aF0.08765384303249187
aF1.0
aF0.0003123193210189145
aF0.0004754374317927215
aF-0.0004438186018099746
aF-0.00032949519090302203
aF-0.00048260682570348454
aF-0.0003960538091763342
aF0.0001814964621339579
aF0.00035705938804053304
aF6.116309386694167e-05
aF-7.549070599067549e-05
aF0.00012552193613715778
aF0.00014847361795117475
aa(lp113
F2.633425515347428e-05
aF0.0016202410982068547
aF2.3140633026311754e-05
aF0.39081820936485434
aF0.09379728341171406
aF1.0
aF0.005597364517633434
aF-0.00035479388221852783
aF-0.0009037821511816305
aF-0.0003638530457099554
aF-0.00013372360090438369
aF-0.00018605478007678182
aF-7.503835491397291e-05
aF-3.598064815612644e-05
aF-1.708735732659188e-05
aF-0.000285819898010083
aF7.488255787582765e-06
aF0.00021024482436113204
aa(lp114
F3.0171889453771347e-05
aF0.0017752136214101448
aF2.224470948795806e-05
aF0.4453507127896609
aF0.15458474807007072
aF1.0
aF0.0014958778777726801
aF0.0014253153575587171
aF0.00031470725803028763
aF-0.0001164435640472441
aF-8.601330722969555e-05
aF-5.1234047702456044e-05
aF-5.592438627010238e-05
aF7.371968402917632e-05
aF-2.4553700229613507e-05
aF8.600754860252295e-05
aF0.00023543784095117446
aF0.0003339338112554765
aa(lp115
F3.061886029749874e-05
aF0.0029306902511847923
aF4.439296906040285e-05
aF0.5521579378855249
aF0.08016320062443151
aF1.0
aF-0.0008397476861928752
aF0.00020162727976416172
aF-0.0010360253046097162
aF-1.4500909254034115e-05
aF0.0007427027527444939
aF-6.069974769622965e-06
aF0.00011277443707613734
aF-0.0001591741937060041
aF-0.00043514704479149824
aF0.0002832099994100594
aF0.0007048294315917135
aF0.00011337240846461167
aa(lp116
F2.5665027434650908e-05
aF0.00232651005489285
aF3.0531658951203725e-05
aF0.45825106702296764
aF0.0754087962493928
aF1.0
aF0.0027670212301839385
aF0.0001957444093986933
aF0.00015294941659191758
aF-0.0003935594981270802
aF-0.00021921312340587534
aF-0.00032254420799639525
aF-2.0317183780237395e-05
aF0.0005224078443203178
aF-4.673543857080025e-05
aF-0.0002853169727738498
aF4.589357701544614e-05
aF-7.824817661736102e-05
aa(lp117
F2.6203552711583488e-05
aF0.002708120035752832
aF2.417922177814667e-05
aF0.45170609479247603
aF0.11752827996791215
aF1.0
aF0.001298369239822982
aF0.0005279489069546903
aF4.099255290688128e-05
aF-1.018522916362185e-05
aF-7.949622894637802e-05
aF0.00023531278587286665
aF-2.9405108072632574e-06
aF0.0003838075390318534
aF0.00014681362111937396
aF0.00018558452060871987
aF-0.0005341201304176612
aF-0.00032325510792464214
aa(lp118
F1.9257563831242592e-05
aF0.0020946442290059922
aF3.310051504657124e-05
aF0.44514612999626657
aF0.04865022633658606
aF1.0
aF0.0011800051572491085
aF0.00041040065428071376
aF-0.00011993880441234563
aF-0.00028264510064498046
aF-0.00036069732322458733
aF-0.0003611994018512695
aF-0.00026492837584500556
aF0.00019944508332856185
aF-0.00028876085453236565
aF7.769424871827185e-05
aF9.283328928419637e-05
aF0.00013807655155668587
aa(lp119
F3.2927692977046546e-05
aF0.003017825010271226
aF2.423102329351959e-05
aF0.4029201053386097
aF0.2153991083792183
aF1.0
aF0.0022123485096321744
aF0.0006594073020826006
aF0.00012430909393372966
aF-0.0002001827310850881
aF-6.530671320319678e-05
aF-0.00023232471621492564
aF-0.00010335168818628328
aF-4.975544107095093e-07
aF-0.0001046211266159613
aF-0.0001484333139009955
aF-0.00011529953216213461
aF-5.344368346426997e-05
aa(lp120
F3.3579026369678486e-05
aF0.002527412048057186
aF2.1783164327921206e-05
aF0.3874369823480834
aF0.16606519037486764
aF1.0
aF0.003324709026452024
aF0.0007583231702571442
aF0.00028980163823931005
aF4.2820494593710686e-05
aF-0.00032032225306602495
aF-0.0002982091861449756
aF-0.00024659678513607076
aF-0.00021558747909799586
aF-0.0001554015191858358
aF-9.443978651625297e-05
aF2.0142399516533488e-05
aF3.383342399659699e-05
aa(lp121
F2.7035973154168463e-05
aF0.003144423646321189
aF3.78537379957573e-05
aF0.530670993250678
aF0.08259621717371764
aF1.0
aF0.0008342962703865686
aF0.0004626549014021794
aF-0.0006096115705808729
aF5.6927126326612994e-05
aF-0.0005234608191706287
aF0.0003788484217765879
aF0.00026376565066735935
aF-3.2202613774497434e-05
aF-4.174432681382911e-05
aF-0.0005071577437983162
aF-0.00019005197714704774
aF-1.8307209724452153e-05
aa(lp122
F2.3880679730389564e-05
aF0.0024002092486501633
aF2.3300069300428694e-05
aF0.4166405973340595
aF0.09097537985059793
aF1.0
aF0.001761999928606497
aF0.00025751240470810264
aF2.2651238276962086e-05
aF-0.00020209169381940303
aF-0.00015477578568927878
aF-0.00014730769260391406
aF-0.00012929875810457886
aF-1.610785593648086e-05
aF0.00013878085842387161
aF-2.3708088836319805e-05
aF-1.2606762158420727e-05
aF2.833196604912576e-05
aa(lp123
F2.575506241238151e-05
aF0.003265137063618337
aF2.3516473465654842e-05
aF0.39972482952372357
aF0.12379452406943568
aF1.0
aF0.0011661547931388879
aF0.0002718821897792541
aF0.00018306309343371673
aF7.885823752451944e-05
aF-0.00010047988034998663
aF-0.00024049252915790106
aF-0.0003768631262858981
aF-0.0002806175789787777
aF3.598290394253803e-05
aF0.00014659960461950265
aF-1.4102077238381726e-05
aF-8.692032719156569e-05
aa(lp124
F1.919719176451342e-05
aF0.002046004002678101
aF2.454518568627674e-05
aF0.42705130450930784
aF0.05307713239537063
aF1.0
aF0.0015259947580057872
aF0.0008372129200147427
aF-7.422055933844888e-05
aF-0.00030800695852287895
aF-0.0001534949450050125
aF-0.0002590810563952957
aF-0.0002596015099374045
aF-0.00014597438740058687
aF-2.4409254572223547e-05
aF9.758556448843456e-05
aF-2.915948854934619e-05
aF-0.00010479614295611703
aa(lp125
F2.3414140305130774e-05
aF0.002080723210565205
aF1.8303926094085547e-05
aF0.39094073047165184
aF0.13273035614945228
aF1.0
aF0.0022323648770476
aF0.0007709787890689179
aF0.00028161352545653636
aF-0.00010537647605364032
aF-3.417925756036149e-05
aF-0.0002093320385459673
aF-0.00032325639747850607
aF-0.00014625398285507976
aF-0.00028108834206590363
aF4.408575291913851e-05
aF-4.5828655147049786e-05
aF0.0001971817237509881
aa(lp126
F4.234013467739173e-05
aF0.004933662141657343
aF4.169001125091969e-05
aF0.5291618453053052
aF0.22334746461343843
aF1.0
aF0.001499939728051663
aF-7.77149450660244e-05
aF-9.951098032992743e-05
aF-0.0004143159056569877
aF8.552971448153082e-05
aF3.275696458852235e-05
aF0.0006726972667814613
aF-0.0005396502356084306
aF5.441165025018602e-05
aF5.890037385243713e-06
aF0.00020266973724803258
aF-4.152380086168497e-06
aa(lp127
F4.121225196573509e-05
aF0.00476621505777924
aF5.118690098076896e-05
aF0.5413862092720194
aF0.20641735958974353
aF1.0
aF0.0029439936158820084
aF0.001316441614119696
aF-0.0002809214546416256
aF-0.001128309560870394
aF-0.0002482161225492293
aF4.600417375298855e-06
aF0.00025326886449084383
aF0.00038352327361873805
aF0.0007468413405143355
aF-0.00045461273120960433
aF-0.00033478718448954215
aF5.595405180270334e-05
aa(lp128
F3.017299612486277e-05
aF0.0032108077589405146
aF3.191675449991573e-05
aF0.4284456426757061
aF0.18571210647329867
aF1.0
aF0.0026184374345444793
aF0.00112070797256182
aF0.000743555709015505
aF-0.00033504803781127316
aF-0.00012105372011482402
aF-0.00010631974380586518
aF-0.00037804466043796464
aF-0.0003711130345539803
aF-0.0001827742237569737
aF-9.935476304580853e-05
aF0.0005397141593116442
aF-2.1875149724429554e-05
aa(lp129
F2.7836563044371742e-05
aF0.002899918210575439
aF2.7824643244219296e-05
aF0.44890347276717063
aF0.12067235853742256
aF1.0
aF0.002123066850134883
aF0.0012174853648788658
aF-0.0001185862595171898
aF0.00023338148291106322
aF-0.0004292950790495542
aF-0.00028928502070009585
aF-0.00032640993152919476
aF-0.00015342648081794315
aF0.000141972700490047
aF0.00032044418393632887
aF0.0006476893746347645
aF0.00048067602500617945
aa(lp130
F2.0848138405058777e-05
aF0.0024308849913520555
aF1.3226884050654808e-05
aF0.3773887988283945
aF0.1667780196304339
aF1.0
aF0.003190660241863126
aF0.0007702266569972981
aF-0.00011988419859290917
aF-0.00021511517816470382
aF-0.00022153347244950172
aF-0.00020694741778659741
aF-0.000166428270027424
aF-5.630166999035642e-06
aF5.070838779282702e-05
aF0.00014021119455399586
aF4.589662046277943e-05
aF3.09304925585906e-05
aa(lp131
F1.661129136429121e-05
aF0.0022040999917131337
aF4.2340763922741957e-05
aF0.5283718191059317
aF0.04163430023169258
aF1.0
aF0.0013065959373898919
aF0.0005381861128446867
aF-0.0005141650886224525
aF-0.00017431903513817927
aF-0.0003385645690577769
aF0.0001942874359249568
aF0.00031226648466909794
aF0.00046473123459551073
aF-3.377733427080924e-05
aF-0.0003211215472464411
aF-0.0006143060457594747
aF5.1315559931405325e-05
aa(lp132
F3.963943327544634e-05
aF0.005620760897220193
aF4.710283629080919e-05
aF0.5775203915783991
aF0.26826135253097155
aF1.0
aF0.0014827749950336129
aF0.0009264992371567006
aF-0.00030604089920461197
aF0.00015175400098522314
aF0.00014779273911183578
aF0.00046685486036712704
aF0.0003053869785524292
aF-0.0002981638060844647
aF-0.00012153335192078135
aF0.00015821639023497024
aF0.0001465018762455473
aF-0.00025351865189399435
aa(lp133
F2.437135102657233e-05
aF0.0023241178437907613
aF2.116648654668659e-05
aF0.41234119377915524
aF0.0954939132915231
aF1.0
aF0.001269901745793321
aF0.0007334571375245434
aF-0.0003122528742756312
aF-0.0004938137435417779
aF9.642146958749845e-05
aF-0.00011026112801995197
aF-0.00040839343646178355
aF0.0002615629460404234
aF0.0003149837347596307
aF-6.990148866099411e-05
aF-3.095950014684795e-05
aF-4.663043548092122e-05
aa(lp134
F3.18941935061404e-05
aF0.003402535450789368
aF3.4517490141731294e-05
aF0.5555617435667553
aF0.10658217375724492
aF1.0
aF0.0018910361426878505
aF0.0005600403306401838
aF0.0003207726012593624
aF-0.0005322522644318365
aF-0.0002409651668477676
aF-0.0003749517090810479
aF5.461797888967188e-05
aF-0.00028712351545500336
aF0.00019735777727938623
aF-0.000302452743161828
aF-0.0005341409014452419
aF-0.0006416411066829757
aa(lp135
F3.864457951215663e-05
aF0.0031526398831274913
aF2.0057615509676652e-05
aF0.4136162883324248
aF0.2597052252599755
aF1.0
aF0.0033217399579038996
aF0.0010344680856710948
aF-0.00040297511415432133
aF-0.00022114646204217676
aF-2.371218724497411e-05
aF-0.00014918660566560916
aF-0.00016809390090803238
aF0.00027367448399869584
aF0.00012087952463699415
aF0.00033053728168576233
aF-0.00013512388727445328
aF-0.00031084121291971394
aa(lp136
F4.215379886698563e-05
aF0.003613491744723841
aF2.0564605076953102e-05
aF0.4475327324443388
aF0.20986365704818388
aF1.0
aF0.004299753582119838
aF0.00100357801696737
aF-0.00018563494889624766
aF6.066264907475636e-05
aF0.0001956393995417224
aF-0.00027497583632348535
aF-0.00035133193054916076
aF0.0002242670836858687
aF-0.00012386093104972467
aF0.00028916092443414865
aF-0.0002366495335924755
aF-0.00016802897199004227
aa(lp137
F2.572026905728087e-05
aF0.002554160749327647
aF1.3381427359261834e-05
aF0.40331638209273146
aF0.21723276825152965
aF1.0
aF0.0020312635665681988
aF0.0014818357415504232
aF-9.799560870923138e-05
aF-3.233780818595131e-05
aF-0.00022649703919227544
aF-0.00010671112129079436
aF-0.0002392550597215085
aF0.00012217455589562208
aF0.00020907205294749256
aF0.00042756090504083503
aF-0.00018858340731396132
aF0.0002730804798745675
aa(lp138
F3.7271273257199125e-05
aF0.005098098968807715
aF4.024509407798012e-05
aF0.5651379032986222
aF0.1824548904878943
aF1.0
aF0.0023975983289816244
aF0.00019906792066746762
aF-0.000289749965548243
aF-0.0006232453786967626
aF-0.00026764095352530334
aF-0.00026424500715262515
aF-0.0003175287417296512
aF-0.0006137050292716852
aF3.207267770564979e-05
aF-0.00017033083102947985
aF0.0005238780139605428
aF-6.661278030575189e-05
aa(lp139
F2.4990753816294053e-05
aF0.0023513889706321756
aF1.763033658000864e-05
aF0.47071104202816516
aF0.11058446482108285
aF1.0
aF0.0011896666077867155
aF0.0007051883663408096
aF0.0003945440876138315
aF-9.64287346822706e-06
aF-0.0001409382980969018
aF-0.00010877724432838819
aF3.0307263242501497e-05
aF-2.5793125929614218e-05
aF0.00034497326354905594
aF0.0001466610683258548
aF0.0001498984775993366
aF-9.95681671980679e-06
aa(lp140
F2.419124263325728e-05
aF0.002472142327309186
aF1.4985187924673737e-05
aF0.4481189358415061
aF0.12522440521334163
aF1.0
aF0.0018943742314554428
aF0.00045710811804648504
aF6.254700747489217e-05
aF-0.0002962826060732671
aF-0.000232228265123132
aF-0.0002014038967978402
aF-0.0002194345826692434
aF4.185793432590011e-06
aF8.389242581004299e-05
aF6.480656137593227e-05
aF-5.533799505105347e-05
aF-0.00014704504261736967
aa(lp141
F2.985374601789105e-05
aF0.0024772173928206227
aF1.2608720359153626e-05
aF0.34997441246649835
aF0.21597988148845512
aF1.0
aF0.0023945926520822494
aF0.00038762985577826326
aF0.00018056396698328957
aF-3.048435894921034e-05
aF-0.0001826545724793436
aF-0.00022241697608945925
aF7.384432977961222e-05
aF9.006658420666715e-05
aF0.00021279825067686695
aF3.0055020456852418e-05
aF0.00014229454654366336
aF-0.00012895866133615487
aa(lp142
F3.875566550491416e-05
aF0.0027261127936677224
aF2.0744036732911465e-05
aF0.42245477995078995
aF0.15711835628297258
aF1.0
aF0.0026033999106189762
aF0.0005434059887540253
aF-3.573895249897947e-06
aF-0.00033991923083126344
aF-0.00013898262237225853
aF-0.00012882380539463298
aF1.656487684201426e-05
aF0.0002969788759694222
aF0.00035847775913008394
aF0.00030530035716385393
aF0.00033827535344278087
aF-8.605512548050057e-07
aa(lp143
F3.125773790356605e-05
aF0.002404806995433794
aF1.4556264920036872e-05
aF0.40808934498403443
aF0.26450838936574783
aF1.0
aF0.002433574460920764
aF0.0011799607254692505
aF0.00021416700300473602
aF-0.00019228873034051293
aF-8.822167399459468e-05
aF1.1185935814877091e-05
aF4.620639550009917e-05
aF-0.00011890941658746954
aF3.205270460831034e-05
aF9.961791975397962e-05
aF8.34439162928803e-05
aF1.773609086644675e-05
aa(lp144
F3.103834874880901e-05
aF0.0033735777585281327
aF4.103563913540167e-05
aF0.5761786119587192
aF0.09604760603342406
aF1.0
aF3.143050195844164e-05
aF0.00039837532225900406
aF-0.00048324847918086196
aF-0.0006642965317021144
aF-0.0001498164129417022
aF3.370465922407688e-06
aF0.0004091571219946759
aF-0.00020349872185427845
aF-0.00028272081996987556
aF-0.00029397410884334944
aF0.00036931658760395476
aF0.0004763937629081994
aa(lp145
F2.5874469996460445e-05
aF0.00240488371327772
aF3.376517301287537e-05
aF0.5660486362659095
aF0.044936165938186064
aF1.0
aF0.0003624440972813261
aF0.0009703768779728086
aF-0.00021756651158697253
aF0.0004706163281426102
aF0.00022475595414790016
aF-0.00043141799646626965
aF-0.0002567950647369297
aF0.00012932279654382048
aF-0.0002808081010271142
aF0.000613346252001368
aF-0.00020601629924289742
aF-0.00011939649967385559
aa(lp146
F5.184393777939771e-05
aF0.0037020882643554534
aF2.9491717740599636e-05
aF0.4760834923605264
aF0.19298578711366718
aF1.0
aF0.0026525555868971078
aF0.00038899170906018767
aF0.000738098840546371
aF-4.2158216934157756e-05
aF5.541556312178096e-05
aF-0.00022249297150524083
aF0.00014539973385270101
aF0.00031101294920861904
aF0.0003819875717741689
aF-4.610607547724378e-05
aF-0.00035834406928572654
aF0.00022842148278223091
aa(lp147
F3.19331028819569e-05
aF0.002651368286854821
aF3.720854911333875e-05
aF0.5203849801050447
aF0.06423334099986502
aF1.0
aF0.00224698656713515
aF0.0019926904304050806
aF-0.0003250916559968206
aF-0.00033442721746839495
aF-0.0008009198129720208
aF-0.0001326930020934027
aF-0.0001614945566858477
aF0.00025450533712066974
aF5.6795044581378934e-05
aF-0.0002830460453485006
aF0.00012299835258250215
aF-7.948801691798873e-05
aa(lp148
F1.7763402571206008e-05
aF0.0023061579726459587
aF3.0027134483149198e-05
aF0.5052599661306192
aF0.03182082051817938
aF1.0
aF-0.00017872699513558796
aF-6.028182191969111e-05
aF-7.138139247123613e-05
aF1.1749937259636995e-05
aF0.00013980121160720314
aF-3.468113834739568e-06
aF-0.00024159270899095644
aF0.00035121228945485944
aF0.00022533331156408433
aF-6.536148465857636e-05
aF-0.0002341367324242191
aF-5.365857552016148e-05
aa(lp149
F3.332283145268679e-05
aF0.0025327456916947283
aF2.9958811711553377e-05
aF0.45865242085864244
aF0.06867572256373194
aF1.0
aF0.0032765514312342587
aF0.0004704802151814108
aF0.00020431256656132935
aF-0.000171310561209816
aF-0.0008208916301217675
aF-0.0005330500580783408
aF-4.507883715770615e-06
aF-2.2188969072570668e-05
aF-8.070306435447309e-05
aF0.00041996383947753206
aF0.00023100835296833137
aF0.00036090584034340745
aa(lp150
F1.8219454545246907e-05
aF0.0022205674611685275
aF1.8771400195474524e-05
aF0.4530484246267481
aF0.06453053962483618
aF1.0
aF0.0016646866498687548
aF0.00020656498691792825
aF-5.367274295686796e-05
aF0.00010474146247667988
aF-8.357108734968505e-05
aF-2.8336409871542232e-05
aF9.896818199546067e-05
aF3.063757482110651e-05
aF6.50111655316656e-05
aF2.3842067190093014e-05
aF0.0002164003495982786
aF0.00011262412219162833
aa(lp151
F3.327854587474445e-05
aF0.0027531666261696396
aF2.1269185189099786e-05
aF0.4182953204924415
aF0.104134835644956
aF1.0
aF0.0010663026515304777
aF0.0006588267368931869
aF2.0728663614043176e-06
aF0.00020335244305575876
aF-0.0003390664842888734
aF-0.00044360602996776425
aF4.218759944895219e-05
aF-1.2929305096915272e-06
aF-6.331640034167793e-05
aF-0.00020992897012345614
aF8.025191209395267e-05
aF0.00020882545586844843
aa(lp152
F2.948425625093044e-05
aF0.0026190380921206425
aF3.600954333549423e-05
aF0.5080546109657496
aF0.05347105473416883
aF1.0
aF0.0003215907040820619
aF0.00019793601069585388
aF-0.00022533338110926563
aF-0.00019574889004479759
aF-0.00023891052934839493
aF0.0004786329936574562
aF8.05208271445004e-05
aF0.00023796814259048708
aF-7.255046996386447e-05
aF-0.00033751386758290515
aF-0.0001988064459621585
aF0.0001551569585408408
aa(lp153
F4.2805713191529984e-05
aF0.0033704281595455994
aF4.102511658436351e-05
aF0.5617961357049137
aF0.10336289745840083
aF1.0
aF-0.0003466773188703431
aF0.0011114784938826038
aF-0.0008815642521075216
aF6.1784545766240504e-06
aF6.854731965247295e-05
aF1.1321116071331046e-05
aF-5.300677299686898e-06
aF-3.7921817371069474e-05
aF0.0004454682863999207
aF0.00016243648176936544
aF-0.0003434838821743097
aF0.0001084756671586115
aa(lp154
F3.526583998488425e-05
aF0.003325010267689671
aF4.5436375812473125e-05
aF0.5708494007489975
aF0.07400585050682358
aF1.0
aF0.0023470440469288657
aF0.00019840069373513794
aF-0.0004521691864850008
aF0.00018523260814135107
aF-0.0007464619086920015
aF-0.00018697090320028483
aF-2.538000483499908e-05
aF3.003490593820946e-05
aF-9.261825648612319e-05
aF-5.1786761127338126e-05
aF-0.00016064001196595438
aF-0.00024253767951248735
aa(lp155
F2.1671189207184635e-05
aF0.002812099384844612
aF2.8622035389037754e-05
aF0.4475370652811834
aF0.07844656662042661
aF1.0
aF0.0018781087970000845
aF0.00046265630469380365
aF8.815024623055998e-06
aF0.00019091245212789806
aF-0.00019363731585556298
aF8.090392276495766e-05
aF5.21151903580115e-05
aF0.00012651477110741651
aF0.00011136869405674279
aF-7.183815476014688e-06
aF-9.287709604374529e-05
aF-0.0001454477892919574
aa(lp156
F3.183066073444021e-05
aF0.0037729420666822062
aF3.0406032298234342e-05
aF0.49451711293719347
aF0.16179341708494047
aF1.0
aF0.001871090933967704
aF0.0006352340799456988
aF-0.0002839205192189806
aF-0.000174777473915066
aF7.659155061072452e-05
aF-0.0001803769333313658
aF0.00019941354705023767
aF0.0002905056791170065
aF-6.501125794703409e-05
aF-0.0002380362130215255
aF-0.00013385929902842627
aF-0.0002925475152284869
aa(lp157
F2.8158101084925997e-05
aF0.00306904273128915
aF3.331655893240361e-05
aF0.4830337758390001
aF0.10761093379377629
aF1.0
aF0.0023201106129117884
aF0.0005657923208757975
aF0.0003849453383756317
aF-0.00012093182106442202
aF0.0002477620158868923
aF-0.0002722819822669536
aF-0.00011430265527663637
aF-3.093983872700509e-05
aF0.0001904042628420176
aF0.00045262795577415246
aF0.0002901711383133009
aF-0.00020713611243524754
aa(lp158
F2.554185085626578e-05
aF0.003263462731205998
aF2.024739349133438e-05
aF0.40784085663067443
aF0.20178592165066167
aF1.0
aF0.0036140280067396328
aF0.0003342488646138855
aF0.00014508822560404744
aF8.611559382361583e-05
aF-3.816689600782537e-05
aF-1.646392668633952e-05
aF4.341882805671867e-05
aF4.4945506045930695e-05
aF3.587913204973184e-05
aF4.775232030669564e-05
aF0.00010367914577750328
aF0.0001598991557899148
aa(lp159
F3.171676038680475e-05
aF0.00449681619054907
aF4.730189137374116e-05
aF0.5690486841401166
aF0.13199939922619175
aF1.0
aF0.001120202158504697
aF0.00013294114723090263
aF0.0001873337563344152
aF0.0005373493488956226
aF4.665025775848771e-05
aF2.007573330604349e-05
aF0.0002272354385249781
aF9.431920781749631e-05
aF-0.00014120026737415132
aF0.00038994543147520804
aF-0.00029093358873419486
aF0.00026394838494837153
aa(lp160
F2.142778963194251e-05
aF0.0018491178564998324
aF2.911049690001544e-05
aF0.428468662651607
aF0.03614380421592316
aF1.0
aF0.002999254533103032
aF0.00020479047151123237
aF2.7647394145526345e-05
aF2.35158309564318e-06
aF-0.0007310070064059127
aF-0.00011405392864316248
aF0.00020050034238107005
aF-0.00040662887238830474
aF-4.929494851637736e-05
aF-0.00016359372326443748
aF2.659133755004499e-05
aF-2.3540013516813636e-05
aa(lp161
F4.64410223837126e-05
aF0.004210684035803142
aF2.8574322277221268e-05
aF0.43494621553374363
aF0.24518997999505301
aF1.0
aF0.0026312912392310378
aF0.00017592818354428142
aF-5.518107718817415e-05
aF-7.282567763434217e-05
aF-0.00010769490564731257
aF0.00011240790605529906
aF0.00011139601912747752
aF-0.0002628878757185368
aF2.8145361771469223e-05
aF-0.00028110398786311335
aF-8.790931203507722e-05
aF0.00030549481364698915
aa(lp162
F3.9184894999672874e-05
aF0.00409371889455914
aF3.740840238907242e-05
aF0.5115368015101112
aF0.1578387162235461
aF1.0
aF0.0023857071665988705
aF-0.0007417060394539753
aF-6.17885283407995e-05
aF9.880368288782197e-05
aF-0.0008659801308261595
aF0.0002213951294763975
aF-0.0002136638882472433
aF0.00027562294800154624
aF2.5001853670584888e-05
aF3.716668685594431e-05
aF0.0007171312086527165
aF-7.947863546437306e-05
aa(lp163
F2.588115501499213e-05
aF0.0027888470955995987
aF2.1082679989686892e-05
aF0.4441198217545511
aF0.1695304458047373
aF1.0
aF0.003471950799904043
aF6.665743008620363e-05
aF0.00033722864306977583
aF0.00018849559984273427
aF-0.0003520467536889694
aF-0.00032086237912771625
aF-3.7453382603859036e-07
aF-0.00010215077512006734
aF-9.49826294211703e-05
aF7.830034137367003e-05
aF-2.2356113448878446e-05
aF0.00012979799110490061
aa(lp164
F2.1510502187896667e-05
aF0.0024772225382505464
aF4.0805599361886294e-05
aF0.5395123675336593
aF0.042953238912312675
aF1.0
aF0.0003709669409725105
aF0.0005783307338194037
aF0.00024322178858078187
aF-0.0005720872026119698
aF9.907673782232419e-06
aF-9.500805060228992e-05
aF-0.00037642870953161363
aF0.0001240414685908755
aF-5.6482241302541614e-05
aF-1.5358960306526462e-05
aF0.0004828886464997759
aF0.00019056893826171952
aa(lp165
F2.3205114170521062e-05
aF0.0023704123488176593
aF2.146819563833293e-05
aF0.4539203897476294
aF0.06531424697023884
aF1.0
aF0.002611566766514606
aF0.0005389587659505232
aF-0.0001938246870178337
aF9.489497398335298e-05
aF-0.0004499415828845735
aF4.2302244871551566e-05
aF5.45998277213177e-05
aF8.180538936949401e-05
aF0.0001285705738870472
aF-1.7274600725059985e-05
aF-4.253822592506229e-05
aF-0.00010659785559895882
aa(lp166
F2.0415174211768773e-05
aF0.003253283874900432
aF2.4060721685393395e-05
aF0.44105269111903483
aF0.1297920511728762
aF1.0
aF0.001449107193137319
aF0.0006434722308725664
aF6.750820128776525e-06
aF0.00014270774868771689
aF-6.55544121720265e-05
aF-0.00018645659253269063
aF-0.00015727666290969
aF4.017365802358121e-05
aF8.525394184447202e-05
aF9.697680933141963e-05
aF0.00015893717289414494
aF-5.570498247076379e-05
aa(lp167
F2.7873177163599287e-05
aF0.0032544557681650926
aF2.8770504032413064e-05
aF0.5164341886773671
aF0.10749011870615204
aF1.0
aF0.0013350417983909453
aF0.0017512098049415146
aF-0.0001667947625299552
aF0.0007741015704600128
aF0.00020680837076509658
aF0.0003093360255790479
aF0.00033884290596525497
aF0.000156027372469136
aF-0.00017748913592033415
aF-0.00043146015439584387
aF0.0001390036265367669
aF0.00020051090918345865
aa(lp168
F2.8041983840445362e-05
aF0.003208554748881644
aF3.071384097345498e-05
aF0.483283631652814
aF0.09884868968361209
aF1.0
aF0.001934671260695821
aF0.0003508044736039094
aF-0.00022327891002706332
aF0.0002895159763880473
aF7.673155175298818e-06
aF-0.0001746563490524075
aF-0.00011370324794954575
aF-0.00019260943439888007
aF3.762869067230311e-05
aF-0.000153333709536799
aF0.00023913203898870945
aF9.771169012221357e-05
aa(lp169
F3.575753207571659e-05
aF0.003869836703794572
aF3.7340276254310624e-05
aF0.5203536003976623
aF0.14361860182472508
aF1.0
aF0.00022363608179770867
aF-0.00024434431047783275
aF0.00042748033556616876
aF6.78321683067814e-05
aF-0.0007528187503212402
aF0.00019142880408575157
aF7.371226477430582e-05
aF-0.0002907822100428674
aF-0.0001976028741092421
aF0.0002106872790606069
aF-0.00017844686369413725
aF-0.00020209355553405995
aa(lp170
F2.9398669763165385e-05
aF0.003486090731449579
aF4.270920267882767e-05
aF0.553955770545876
aF0.0956007754919606
aF1.0
aF6.300329666241914e-05
aF0.0003773082363029959
aF-0.00018418107192903852
aF-0.0005181317625501078
aF-0.000325028567737182
aF-0.00027056243245632066
aF0.00017307937387276906
aF0.00010279354913642449
aF-7.386088631356421e-05
aF0.0001680184987762339
aF-0.0004706251991160481
aF-0.00020234667452842457
aa(lp171
F2.8157855292631676e-05
aF0.003273771909697556
aF3.644250845993232e-05
aF0.5366414076408113
aF0.08208417468319137
aF1.0
aF0.0010505825828900064
aF-0.00013381036062531585
aF-4.883595087448382e-06
aF-4.844303124990131e-05
aF-0.0003234839068210428
aF9.098914920819087e-05
aF0.00030793485683207523
aF0.00019719570689301743
aF-4.244854522523311e-05
aF0.0004298866178927056
aF0.00029749869793856414
aF0.00041987829871542863
aa(lp172
F4.918442710304333e-05
aF0.005528985392314798
aF3.548298076706598e-05
aF0.48670613095667514
aF0.3531573406052129
aF1.0
aF0.004018034572917007
aF0.0009913047270193659
aF-6.36864477258875e-05
aF0.0005981881139939939
aF-5.2994696267486606e-05
aF1.5803308917859508e-05
aF0.0002085815924786008
aF0.0004411215246703671
aF-0.0002058536819450125
aF-0.0003868685540471222
aF0.00030830695173453927
aF0.00013710027668269596
aa(lp173
F2.8005618580916867e-05
aF0.0032876787605478353
aF1.4804587007766015e-05
aF0.39649148867283857
aF0.22573847726260576
aF1.0
aF0.005575755299385131
aF-2.9741264199234764e-05
aF-3.7042680284659505e-05
aF-8.115305411447588e-05
aF-0.00011289777788107329
aF-0.00010211248899251551
aF-0.00013707588696643602
aF-6.276506693127168e-05
aF-9.728522447498488e-05
aF-5.344803597812508e-05
aF-1.8835804643045985e-05
aF7.909450717689106e-05
aa(lp174
F2.0880400470328902e-05
aF0.0021215898183386227
aF1.9452489310688592e-05
aF0.45233726674381086
aF0.04929268795270438
aF1.0
aF0.002832101385201692
aF0.00015419244943821314
aF-7.811267121230668e-05
aF-0.00030685842589196565
aF-0.0004729497031869653
aF-0.0004095738750202504
aF-0.0002311200371276023
aF-1.6315771912343593e-05
aF0.00014496389074759625
aF6.616615090950817e-05
aF8.238715690541089e-05
aF-9.859564567110721e-05
aa(lp175
F2.9841083234254746e-05
aF0.003081168243171454
aF1.964314472631711e-05
aF0.4004097227717062
aF0.268916029096172
aF1.0
aF0.0031553960989939935
aF0.0012508479988294074
aF-0.0001783858651831289
aF0.0002199197134679527
aF-0.0004224727679066866
aF-5.246041466566739e-05
aF0.00012267739728055556
aF0.0001712571214612098
aF0.00022969001156407444
aF0.00047593581575633675
aF-0.00029872814020066456
aF-9.328621294058512e-06
aa(lp176
F3.19142988828748e-05
aF0.0034526944945758044
aF4.0112968519786037e-05
aF0.5931685855762766
aF0.096292825454856
aF1.0
aF1.983034001247499e-05
aF0.00045850302237430567
aF-0.00016876963866917482
aF-0.0001665217980969796
aF-0.00014307614753561842
aF-0.000549249893596419
aF0.0004381940816634125
aF0.00039535357649293296
aF5.839719023158689e-05
aF0.00019241772845478628
aF7.009152024605441e-05
aF-2.0371104256175577e-05
aa(lp177
F2.7314132519397274e-05
aF0.002646785637332448
aF2.8677800833880947e-05
aF0.4715565768164725
aF0.0717052233584668
aF1.0
aF0.002040597153021364
aF0.0002728618167190047
aF-0.00013773459792976883
aF-4.2864106292399275e-05
aF9.979234278007134e-06
aF0.00018332022932775855
aF3.085706614164205e-05
aF-0.00013976828803596207
aF0.00014698487008847074
aF-0.00017282902656730992
aF0.00010318555291879955
aF1.038882600808375e-05
aa(lp178
F3.5330321114273446e-05
aF0.003645577390421524
aF2.370807719254068e-05
aF0.45579666724557066
aF0.16829318449424915
aF1.0
aF0.0023994090849606842
aF0.0012694805288264055
aF-0.0001555543753975115
aF0.0002818579337404794
aF-8.62391712192876e-05
aF-0.00017041079463052156
aF-0.00040599964066565317
aF0.0002980399236910168
aF-8.801601109391732e-05
aF-1.5475131653574724e-05
aF0.0007153350278674043
aF0.00021949239017416577
aa(lp179
F2.721309944583451e-05
aF0.003144642135998583
aF3.9643562711245614e-05
aF0.5939694606094709
aF0.07480873670947272
aF1.0
aF-0.001149748450969515
aF4.7480437762849244e-05
aF-0.000276108477253416
aF0.00032032481099985227
aF0.0008015566860283794
aF0.00013451686998593458
aF0.00010917268439730842
aF-0.00021735501135541907
aF-8.464888600849779e-05
aF-7.874436595407175e-05
aF-8.302898742216445e-05
aF-5.266360180126275e-05
aa(lp180
F2.0249891379566386e-05
aF0.0025598479128121888
aF3.0130274346797224e-05
aF0.4621070821772402
aF0.05479741384631138
aF1.0
aF0.0020633532486612686
aF0.0004814722007628136
aF4.023414134035252e-05
aF9.435936223723293e-05
aF0.00019437588155396575
aF-8.95070527657162e-05
aF6.915307344327417e-07
aF-0.0003070014571862181
aF-0.00022451955265134427
aF3.509868378786865e-05
aF-4.170472267430734e-05
aF0.00011859614075728986
aa(lp181
F2.2584423686127973e-05
aF0.002124352693653515
aF3.9014180220780156e-05
aF0.5040720580569993
aF0.034435277848707965
aF1.0
aF0.00019589105299976515
aF0.0007635902265944683
aF5.6696217676255094e-05
aF0.00028156522437319543
aF0.0003847056847122423
aF-0.00034940440962496404
aF-2.965967267816075e-05
aF0.0003514210266362752
aF0.00035097454855523476
aF-0.0003560756167197194
aF-0.00018778657580379536
aF0.00040310500845664674
aa(lp182
F4.811994157723968e-05
aF0.0033633576094942276
aF2.6707069648152968e-05
aF0.4248420851935691
aF0.17459371779241967
aF1.0
aF0.003008270385570417
aF0.0009954706694542787
aF-0.0002198990068639644
aF-5.876373830184261e-05
aF-6.0521536237734737e-05
aF-0.00029629839852424747
aF6.302326842395721e-05
aF-0.0002897202166594463
aF0.0001814445979668272
aF-0.0005551898408833195
aF0.00013345136146606604
aF-0.00036188903202218824
aa(lp183
F2.8193980584152657e-05
aF0.0022605873328087438
aF2.7612488499619986e-05
aF0.4476427302982689
aF0.0659581623415985
aF1.0
aF0.0010608068055427506
aF0.001055162539526976
aF0.000275211212389228
aF0.00011504061972685856
aF-0.00016183747845254073
aF3.328869753311039e-05
aF-0.00013799245216809602
aF-0.0004419270744133622
aF-0.000340875467258747
aF-9.168325905366503e-05
aF-5.0647507374803756e-05
aF-0.0001670997540356174
aa(lp184
F2.587097642109191e-05
aF0.0028776260835200952
aF4.113148956221837e-05
aF0.5527539439360617
aF0.049721798429793754
aF1.0
aF-0.0008254829390039225
aF0.00041652849331804065
aF-0.00017656572976801032
aF3.178579925890036e-05
aF-3.880719286469458e-05
aF-0.00026855644884195637
aF0.00036249093085175525
aF0.00017044241126633038
aF-0.00016340888219820664
aF-3.500199137040811e-05
aF4.082390482320057e-05
aF0.0001357621590370621
aa(lp185
F3.021411186259729e-05
aF0.0026856199114680688
aF3.5038511082924834e-05
aF0.48813702368502276
aF0.07902337086585848
aF1.0
aF0.001809774957911995
aF-4.505220076346404e-05
aF0.0002156454922261405
aF-5.2103839623565355e-05
aF-9.412978811212137e-06
aF-0.0005091559572495484
aF-0.0001543378306657284
aF0.00024279153746487058
aF-0.0002647828257350312
aF0.0001759307981796688
aF-0.00024131776652646793
aF0.00025075868700158443
aa(lp186
F2.2042278735080098e-05
aF0.002311345336214374
aF2.4099705985067445e-05
aF0.4172322126448181
aF0.07938702443327907
aF1.0
aF0.0025260070053130597
aF0.0004850520559876289
aF-0.0001891059259586239
aF-0.00038651361428442975
aF-0.00026765296767394657
aF-0.00016037361432464509
aF-0.00015112027752989057
aF-2.3589139304364993e-06
aF9.007937026309144e-05
aF4.3679444741445494e-05
aF-8.24987861255629e-05
aF-0.00016153916117401254
aa(lp187
F3.9374619782348734e-05
aF0.002403330885504199
aF2.2475523129343366e-05
aF0.3921339702725168
aF0.15353493643537347
aF1.0
aF0.003283488538898321
aF0.0008885609920249874
aF0.00046627184262653586
aF0.00014238645119195458
aF2.8943740236941876e-05
aF9.821032165725196e-05
aF-0.00016009501958337043
aF7.237146542789868e-05
aF3.9477292325668034e-05
aF-0.00012885016821613675
aF-0.0001871004195604433
aF-0.00022233232940392853
aa(lp188
F1.76739991234751e-05
aF0.0013988006684873462
aF2.633630933991484e-05
aF0.4165075155326744
aF0.02762310100668945
aF1.0
aF0.0005611632219499164
aF0.000957630539566876
aF0.000351589032311608
aF1.1658114200701234e-05
aF6.359125207069297e-05
aF-0.00017987719790010464
aF1.3737341827886267e-05
aF-0.00035365018227277305
aF-8.354148907311909e-05
aF-0.0002805682499873586
aF-0.00012840502582485698
aF-4.1468256127640334e-05
aa(lp189
F3.016582529081253e-05
aF0.0022607556104867594
aF1.8898413491015883e-05
aF0.44011670151726334
aF0.1617154943380375
aF1.0
aF0.002363687541065594
aF0.000758404937661588
aF1.6498628926215835e-05
aF-0.00039712117107501294
aF0.00025025830478743444
aF-0.00028548333471691136
aF-6.34951437659717e-05
aF7.601056352052762e-05
aF-0.00012383479807867703
aF0.00016070663160896732
aF-0.000168422258002937
aF0.0001552976651611251
aa(lp190
F2.6149074107584395e-05
aF0.002596155963926334
aF4.2068579187294145e-05
aF0.5679158752750534
aF0.047262942004578326
aF1.0
aF-0.0008843357437932038
aF0.0002214726967657034
aF-0.0001403572169317697
aF-0.000127690280705183
aF4.9743582102801936e-05
aF-0.00011100009658515734
aF0.00026118655513892447
aF-0.00034522941472637446
aF-0.00022952771408924635
aF9.358910625038586e-05
aF-0.00023252819528821634
aF1.6486251891893438e-06
aa(lp191
F2.0376452200227722e-05
aF0.001963405028664198
aF3.3747448276099753e-05
aF0.5436353170962358
aF0.03506831478791924
aF1.0
aF-0.0010522922440400824
aF0.0008653391491188757
aF-9.505496682897555e-05
aF0.00020228298362617872
aF-0.00012196323100941296
aF-0.00019966944923381993
aF-0.00011092612538300071
aF-4.772758516136086e-05
aF-0.0002907903585915221
aF-1.6131363626285155e-05
aF-7.346825969742429e-05
aF7.91086756463735e-05
aa(lp192
F2.4929167487969736e-05
aF0.0023693347349486955
aF2.7849085241098702e-05
aF0.48462081816129676
aF0.06649917702696449
aF1.0
aF0.0019426022895838722
aF8.686841571463398e-05
aF0.00037907242985539357
aF0.00011500866002278429
aF-0.0005048267996461069
aF-0.0001954624409652442
aF0.00015770555089570214
aF0.0002191689886818876
aF-3.069059982884742e-05
aF3.565615281679651e-05
aF-0.00027892272386968633
aF-0.0001302382201701218
aa(lp193
F3.7692789140161255e-05
aF0.003369604907046334
aF2.5347279320184796e-05
aF0.4500953773311039
aF0.14353084992931683
aF1.0
aF0.0010040743124609293
aF0.0011389456061483448
aF-5.41779593585763e-05
aF-0.0002595535322228382
aF-0.00020552511385947103
aF-0.00016896371134539332
aF3.861694139962294e-05
aF0.0002842546606628333
aF7.93899280048806e-05
aF0.00018249998864776728
aF-0.00020918665314996446
aF7.992246444683314e-05
aa(lp194
F3.114965543091593e-05
aF0.0029352738285668943
aF3.374556394328336e-05
aF0.49787839862257843
aF0.07395817742671949
aF1.0
aF0.0015457871380647073
aF0.0007830864358060899
aF8.026006717513787e-05
aF-0.00011536525881914068
aF-2.2419326805013505e-05
aF-0.000288476908294016
aF0.00011834771677113098
aF0.00046839179111606716
aF-0.0006439211244490172
aF-0.00014555609384015784
aF-0.0003075395542029205
aF9.786210678788884e-05
aa(lp195
F2.2657071204911454e-05
aF0.0019565701460246224
aF2.846357896532987e-05
aF0.44861833392591927
aF0.04200031763905848
aF1.0
aF0.0008736219580532244
aF0.0016609289747616216
aF0.0002545389958724189
aF9.232972365988058e-08
aF2.9000982822190765e-05
aF-0.00010454129297831983
aF-0.0002694213482589716
aF-0.0001241162055495713
aF-0.00010898913241840972
aF-0.00021386388158170088
aF0.00011544247063215012
aF5.6445954821317016e-05
aa(lp196
F2.9514672973979565e-05
aF0.003176475117614789
aF3.752473242397261e-05
aF0.5568253134591252
aF0.07349802548984331
aF1.0
aF-0.0010626917876833417
aF0.0007923281917338521
aF-0.0003281187931465111
aF-1.3984193753287657e-05
aF-0.0004162414368576864
aF-2.8293863171629105e-05
aF-0.00015868404704333792
aF1.0274507561194912e-05
aF-0.00023186212936102414
aF-0.00019774175158333488
aF-0.00013583546327463757
aF0.00022085216339429422
aa(lp197
F3.297727096736744e-05
aF0.003013811183084545
aF3.6511938293212146e-05
aF0.5445629380170113
aF0.08871917304591458
aF1.0
aF-0.000942297751106979
aF0.00027244000016548057
aF-0.00030065523566968254
aF-0.0002134618033344254
aF-6.463889004359643e-05
aF0.000155656305238792
aF0.0001365445437739112
aF-0.0001529675171347441
aF-0.00048169244032052785
aF-0.00040320038328916456
aF-0.0002518660710616556
aF9.238396106309746e-05
aa(lp198
F2.297427554680966e-05
aF0.00336911061375236
aF2.8688219282764646e-05
aF0.47240597945763374
aF0.12176803383925866
aF1.0
aF0.0016253149983190488
aF0.0002869565943745164
aF0.00016027419700019395
aF4.4498538749287607e-05
aF-1.2222293036164623e-05
aF0.00010302634990497576
aF9.295391089696825e-05
aF1.125370835503834e-05
aF0.0001877858932043044
aF0.0001137360507327288
aF8.333712488611632e-05
aF-5.301173532894495e-05
aa(lp199
F2.6796492125379645e-05
aF0.002951433240155358
aF3.812239856016572e-05
aF0.47494203835875365
aF0.08885265420699816
aF1.0
aF0.001401534218534748
aF0.0010704547809497916
aF-0.000288803429157902
aF-0.0002511152612975916
aF0.00020696186052463606
aF-0.0003051752651771558
aF-0.00015843635937885155
aF0.00012768999277958738
aF0.0002920068313285519
aF0.0002822602009483001
aF0.0002757696924573613
aF-0.00013904433825467745
aa(lp200
F2.0393160245956278e-05
aF0.002030603627310304
aF2.53279619717513e-05
aF0.43328798730621443
aF0.08035811530016097
aF1.0
aF0.0017742729807065467
aF0.0003781011554125062
aF0.00034979981872256325
aF0.0001349424245406155
aF1.2160271887395514e-05
aF-4.7212297570642065e-05
aF4.01253016581554e-05
aF-9.358632316880054e-05
aF-2.0968017109071435e-06
aF0.00025421804293705643
aF4.159111425235936e-05
aF-8.90946050808717e-05
aa(lp201
F1.8675782705432944e-05
aF0.002031381659589678
aF2.747726110586543e-05
aF0.4449627646486533
aF0.059424684622633506
aF1.0
aF0.0013732020644746186
aF0.0009002849808293698
aF0.0003078570447848543
aF-0.00010512372931470955
aF0.00017188659956443993
aF1.4510194436304536e-05
aF-0.00011285321228445295
aF0.0001160115030790267
aF0.00013706525956565244
aF0.0002732156955743187
aF-8.388920489093622e-05
aF0.00010409169827368211
aa(lp202
F2.1468936373973387e-05
aF0.0029394242414283083
aF4.20841508958309e-05
aF0.5012247475903684
aF0.06295676051686022
aF1.0
aF-2.6126209110529487e-05
aF0.0002985144684017192
aF-0.0003395696608233203
aF0.0002821639344127367
aF-6.741422242436821e-06
aF-0.0002922900769974699
aF0.00026128557400231756
aF8.227756468246149e-05
aF9.870317331936224e-06
aF0.00013991338326548158
aF-0.0004289188274348263
aF4.119366003838752e-05
aa(lp203
F2.617870317071105e-05
aF0.002410679155637812
aF3.255085785723599e-05
aF0.4388427747777902
aF0.06979303778795705
aF1.0
aF0.0016543636498515522
aF0.0012532226260225938
aF-0.0003375067065572876
aF-0.0005742657173183093
aF5.778268017557669e-05
aF-0.0002547894622912307
aF4.206614810881863e-05
aF0.0002350608612730675
aF0.0001346305591179869
aF6.519365778032902e-05
aF-0.00029486857662994415
aF-0.0002158001004814718
aa(lp204
F2.2265283988712196e-05
aF0.0023201674370585674
aF2.8005132886703374e-05
aF0.46923305922995556
aF0.08127748290169005
aF1.0
aF0.0019110675981383871
aF0.000320347119594845
aF9.233828449167505e-05
aF-6.799294074105288e-05
aF-0.00015899124110686192
aF-0.00011613233577541636
aF-3.7353685010356414e-05
aF-3.90691555675005e-05
aF-4.23805519030959e-05
aF-2.030835217039608e-05
aF6.561750209664629e-06
aF7.698881252940957e-05
aa(lp205
F2.9864887551390694e-05
aF0.0028818651327858465
aF3.870708216398981e-05
aF0.4933017715490851
aF0.0835861215617905
aF1.0
aF0.0006375084117161845
aF0.0004406683100620872
aF-0.00047219286870362414
aF-0.0001611347411846824
aF4.691663433280365e-06
aF-0.00024109521636496542
aF0.00026451913630414376
aF0.00010639880420309657
aF2.2105263911066977e-05
aF-0.0003606915154673309
aF-0.00033516099164465044
aF0.00035903808148750007
aa(lp206
F1.9545982519395134e-05
aF0.0019617225807657336
aF3.313874429014101e-05
aF0.4781191959390049
aF0.03353717575559898
aF1.0
aF0.001326559967815924
aF0.000625920197882661
aF0.00037526113580273543
aF-0.000308274390437088
aF-0.00011201743504016056
aF-0.00010859082775335566
aF2.647206714931212e-05
aF-5.999230413037325e-05
aF7.095202921393756e-05
aF-4.103499592421868e-05
aF-4.797010984930649e-06
aF2.272170574070277e-05
aa(lp207
F3.378699293475787e-05
aF0.0020608923460781747
aF2.501978298222135e-05
aF0.3856285134482389
aF0.13665535725017364
aF1.0
aF0.0022705804381991644
aF0.00039416829895233367
aF0.0001241780734617006
aF2.4569652911408093e-05
aF0.00011033229110130989
aF0.00015385755125845444
aF-0.0001426434580749331
aF0.00012477959438159122
aF-9.625809833849455e-05
aF-0.00021540832945287437
aF-0.000294241242687828
aF-3.0124414447959418e-06
aa(lp208
F3.4284317949569436e-05
aF0.002672577218871392
aF2.3973684026124746e-05
aF0.4037534719876272
aF0.13535094127656547
aF1.0
aF0.0017305893140694912
aF0.001359136187418895
aF0.0002343329014973507
aF-0.0003636243434648166
aF-0.0002706752088425112
aF-0.00022078606598183704
aF-5.355034221292747e-05
aF-0.0005889199768360259
aF-2.2094204111689226e-05
aF-0.0001691924437046446
aF-0.00013760388507289684
aF0.00013071911805643513
aa(lp209
F2.6513039790125867e-05
aF0.0036865796162459438
aF3.394970397618582e-05
aF0.5066050032242816
aF0.12021717441406087
aF1.0
aF0.00134414436086404
aF0.0005409994721349289
aF0.00020777619408105424
aF-0.00016665164500333655
aF6.821851632367865e-05
aF0.00010987658315933551
aF-0.0001412466068017857
aF-0.00015729833812878772
aF7.649923584518281e-05
aF-1.7325119890667944e-05
aF-0.0001589851038082643
aF2.865586089085493e-05
aa(lp210
F3.753342884727523e-05
aF0.0028213921593276815
aF2.4483965853872405e-05
aF0.4406446274590946
aF0.22863699317376593
aF1.0
aF0.00356431474551684
aF0.0010868898746444998
aF0.00012103063924126823
aF-0.00018455556116800116
aF-0.0003413850772374482
aF-0.0002888663624055908
aF-0.00015903908392342998
aF6.922681689772452e-05
aF0.00015588229164415618
aF6.966281347590064e-05
aF-5.6702159307429234e-05
aF-4.224285547768089e-05
aa(lp211
F2.584650242231638e-05
aF0.002574189484532599
aF3.247761009970925e-05
aF0.4677175120055811
aF0.0849362673839462
aF1.0
aF0.0024304318000810494
aF0.0004837308519309224
aF0.00033224609421623216
aF0.00013360151598864248
aF-5.182212256063728e-05
aF-0.00021552553906600125
aF-0.00014956880539517334
aF-8.123988744149757e-05
aF4.920111832568951e-05
aF5.471562715355126e-05
aF3.248003365672184e-05
aF-0.0001106956535927311
aa(lp212
F3.3084047749228925e-05
aF0.0036639118662711166
aF3.804993685812509e-05
aF0.471117085704932
aF0.15225670347597098
aF1.0
aF0.0008500502232850065
aF0.0007896961947446727
aF-0.00032576559253524856
aF0.0001469059036110063
aF-2.5672147427312062e-05
aF4.360243050244038e-05
aF6.512539215681964e-05
aF-9.008131748704137e-05
aF-0.00014415701523407272
aF0.00016835749151059302
aF-0.00017914302656509432
aF-9.60741729421808e-06
aa(lp213
F3.2739479137045665e-05
aF0.0038415501664185252
aF3.744887892921437e-05
aF0.4856660191343535
aF0.14656489223894215
aF1.0
aF0.0007542149033297424
aF0.001157079381987704
aF-0.00029174168596650326
aF-0.0005556945292718512
aF-0.00012775653042272715
aF0.00021572235713916075
aF-5.679687514825156e-05
aF-5.774868945381194e-05
aF6.618971666507577e-05
aF3.795595812439294e-06
aF-0.0001479171644017833
aF-0.00010553390324173395
aa(lp214
F3.669669271890028e-05
aF0.002875285743394117
aF2.1439650563269318e-05
aF0.38514684168901886
aF0.2599956981911537
aF1.0
aF0.00381614014500658
aF0.00025354783692765664
aF0.00013046952160995282
aF0.00011146656490810661
aF-9.966890305630432e-05
aF0.00021111701745760926
aF1.6590187809547172e-05
aF0.00010114865814506852
aF-7.301433539089331e-05
aF-8.697275812654087e-05
aF-0.00013426750962709208
aF-7.318131141541455e-05
aa(lp215
F2.380812420240369e-05
aF0.002420469540308135
aF2.3679450743692355e-05
aF0.4354960353908943
aF0.07955875495886225
aF1.0
aF0.0009329478778652148
aF0.0011376610932309237
aF0.00018427356241204748
aF2.1431745939753473e-05
aF1.683940687964049e-05
aF-0.0002478620242041066
aF-0.00013083513493469264
aF-0.00028807510875551257
aF0.00026599434506808216
aF-0.00014217507928420464
aF0.00023613163671323283
aF0.00012808514640034075
aa(lp216
F3.665308503498093e-05
aF0.003280126620031296
aF1.6262791213519017e-05
aF0.4173683869677684
aF0.39310070631968225
aF1.0
aF0.004225819307013944
aF0.0003638813377862824
aF0.0003100236999381417
aF-0.000308604889093349
aF0.0001133445436380151
aF-5.192048179831151e-05
aF-0.00021622027583279865
aF-0.0002787787047720864
aF-0.00020436478754890864
aF-0.0001310693441549556
aF-0.00012151963868754458
aF-0.00010010051858983649
aa(lp217
F2.9054067266618047e-05
aF0.003630676289627003
aF3.842495092746535e-05
aF0.5092227829897329
aF0.100947079437699
aF1.0
aF0.0004049892321703104
aF0.0008835623713700302
aF-0.00011590860369177843
aF-0.0001506669012753557
aF-4.749521843303624e-05
aF-0.0002551962331642625
aF2.8724887211835935e-05
aF0.00029849496475291406
aF0.00040899702990687887
aF8.913048177532606e-05
aF-0.0001619829964468655
aF-0.00038803043326614804
aa(lp218
F2.9071313035794216e-05
aF0.0035399128070681117
aF3.980720112968557e-05
aF0.5115812587958525
aF0.09929928188881279
aF1.0
aF0.00025622949046595617
aF0.0003886175235578505
aF-5.9322138235791506e-05
aF7.728408481580369e-05
aF0.00035367105226036103
aF0.0006668531829882546
aF6.807448419517027e-05
aF0.00021177015665031356
aF-3.620411316838213e-05
aF-0.000538027929699616
aF-9.97808992015885e-05
aF0.00036209197070236765
aa(lp219
F2.9141791594014677e-05
aF0.0027036446378048257
aF2.9570595865027536e-05
aF0.44403361932913743
aF0.16182100683639566
aF1.0
aF0.0027617863801084625
aF0.0009461924217037716
aF0.00016551687696887986
aF-2.3751845589889498e-05
aF-0.0001738460635706047
aF-0.00023664041310184167
aF3.3340181390780864e-05
aF5.5418195040161746e-05
aF8.446369985548797e-05
aF0.00012269478708721766
aF0.00011329029773822734
aF-0.00012760271221526516
aa(lp220
F3.97401846158642e-05
aF0.003910073302249877
aF2.5342560479956357e-05
aF0.4138603926941386
aF0.2770794138267818
aF1.0
aF0.002515139665631726
aF0.0011726380319974548
aF-8.875860802470708e-06
aF-0.0004357710895107769
aF4.80933400415916e-05
aF8.049267305418664e-05
aF0.00013674775372793456
aF0.00010487980553980533
aF0.00033606066533579926
aF0.0004191200923621293
aF-2.1026751974931594e-05
aF0.0001323914145069755
aa(lp221
F3.205306831676804e-05
aF0.003185395835654085
aF2.7161049588169552e-05
aF0.413255752821829
aF0.16150956866224256
aF1.0
aF0.003128645373539259
aF0.0006043221675038388
aF0.00048690122017326827
aF0.00035049576337666704
aF-0.0001561659330171668
aF-0.00015719190460848861
aF-0.0005643942210521234
aF-5.825341442850186e-05
aF0.00017488450468145463
aF3.058287406962562e-06
aF0.0002089973016074656
aF-5.1650693451634624e-05
aa(lp222
F3.165881503139248e-05
aF0.002586953271383832
aF1.4674290697945262e-05
aF0.38458426205359614
aF0.39024092376346015
aF1.0
aF0.005499335817791569
aF0.0011033929435470507
aF0.0003172061242880364
aF-0.0005605385111311235
aF-0.0003604340112596569
aF0.00010284893102409562
aF0.00019338696517122062
aF0.00020849850631799433
aF-0.00016184997424366753
aF3.829657190293792e-06
aF-0.00020499879827811943
aF9.968343458476141e-05
aa(lp223
F2.4808590449096565e-05
aF0.003573135015817695
aF3.78762440752401e-05
aF0.5352840695132879
aF0.08821348754640794
aF1.0
aF0.0005740611422876784
aF-4.3063719895907634e-05
aF0.0006189002207184985
aF-0.00027190990087860975
aF0.0002329615650105746
aF7.615813588389291e-05
aF4.897530084533681e-05
aF0.00038539465269998515
aF0.00016973601041253949
aF-0.0002679085288657663
aF-0.00023161414349421388
aF-8.173174551959896e-05
aa(lp224
F3.176058264999139e-05
aF0.00411021820051773
aF4.0308642097652176e-05
aF0.5126213281794479
aF0.12945233258713368
aF1.0
aF0.00021374100272125992
aF0.0005397284809941999
aF-1.0081825644226794e-06
aF-0.00011732335179831349
aF-5.007339144228868e-05
aF-6.874141463080752e-05
aF0.0001043226474587278
aF-0.00018057517819227903
aF1.9303826597800757e-05
aF-0.00018980248948312134
aF-9.393575072895578e-05
aF0.00022937534480152048
aa(lp225
F2.874520372637679e-05
aF0.002957003479682103
aF3.0378533465947303e-05
aF0.4497126622227244
aF0.10210787221082485
aF1.0
aF0.0027900901535794493
aF0.0008244173392704153
aF0.0002687997052129485
aF-0.0006556145551008891
aF-7.556351090291993e-06
aF-0.00023671881766858808
aF0.00010761061284091294
aF0.00017082477689214329
aF0.00014024149204305036
aF-3.134640895714087e-06
aF-5.4899230815479066e-05
aF-0.00031490693903620486
aa(lp226
F2.021436563662482e-05
aF0.0024493195670851516
aF3.65623523765106e-05
aF0.5275253413716174
aF0.03905584708087285
aF1.0
aF0.0005025961480162809
aF0.001152191702955241
aF0.0005149507740336964
aF-2.979342301034558e-05
aF-0.00022400842449172745
aF-0.0002520464933003966
aF0.00038188480880581695
aF8.915003019431214e-05
aF0.00019640328631389888
aF-0.0003037753670540284
aF2.096909917453075e-05
aF0.00014163354400138816
aa(lp227
F2.6016412255206385e-05
aF0.0022587647011735
aF2.256024822173234e-05
aF0.40117132366428127
aF0.11948893311111411
aF1.0
aF0.0024905124606457115
aF0.000825026326783353
aF6.386483604447589e-05
aF-0.0001531728087532998
aF-0.00036448817567431336
aF-0.0001525841258823049
aF-0.0003346825725319187
aF8.862005178350694e-05
aF-0.0001695617772313523
aF-0.00020812812688679051
aF-0.00020027317897758338
aF-1.7337256791009833e-05
aa(lp228
F2.5224017495270828e-05
aF0.0024627321531099666
aF2.2039620303799774e-05
aF0.4662805816425024
aF0.07526576972244087
aF1.0
aF0.0024688918898607038
aF0.0015111107429083312
aF0.0002861735370236439
aF0.0005324126843970675
aF6.907346744615345e-05
aF0.00018465361063132552
aF-0.00018414135965273037
aF0.00018587940764015166
aF-0.0001529399204312172
aF0.00015096631221002543
aF-3.89034109145235e-06
aF2.4579582177252285e-05
aa(lp229
F3.072163898523894e-05
aF0.003011843458814528
aF1.7411526495100792e-05
aF0.3909248521177271
aF0.23334396978339128
aF1.0
aF0.0035467152618776808
aF0.0009909475513737234
aF0.00016526874000949324
aF-5.83372363068976e-05
aF-0.00026114264175845206
aF-0.00018633836633961343
aF-1.2206256748893162e-05
aF-0.00012723950908736053
aF0.00012815838812298692
aF6.410287993222156e-05
aF5.5076032912657165e-06
aF-0.00013143738771213487
aa(lp230
F1.8359872280902082e-05
aF0.002534002991993209
aF4.074220979164884e-05
aF0.5588831181257076
aF0.03379018211123494
aF1.0
aF-0.00038563303124855157
aF0.0015983622550336696
aF-0.00010223832641333726
aF-3.409870173666301e-05
aF0.00018090257347722183
aF-0.00021886270517738814
aF-4.243580352827104e-05
aF-5.172325595102781e-05
aF9.5101971308931e-05
aF-0.00025903810414916104
aF-0.00043341576539253265
aF-0.00014445899676390327
aa(lp231
F3.042082863394264e-05
aF0.0028395488277808147
aF3.571538960838253e-05
aF0.4821361756422138
aF0.08239469342302119
aF1.0
aF0.0021248556975852232
aF0.0006761889191274906
aF3.5188996757837864e-05
aF-0.0007157421184325854
aF0.0001139366710070734
aF-9.304493020421988e-05
aF0.00032495049881417596
aF0.00018249456977855022
aF-0.0001657365584057295
aF2.825630181398835e-05
aF0.00010076451017589021
aF-2.463181281365218e-05
aa(lp232
F3.6444662143592145e-05
aF0.002888015932155363
aF1.8621035598061876e-05
aF0.38288881380693873
aF0.19343786694791032
aF1.0
aF0.0030883877437962756
aF0.0004124207058680962
aF0.00018595936114566445
aF-5.892316993872344e-05
aF-0.00011549524120918052
aF-0.00015217539965278572
aF-5.612135617683708e-05
aF8.792239954934432e-05
aF0.00021012094730120777
aF1.1308180082051e-05
aF-0.0003085078487299306
aF-0.00021864555626957826
aa(lp233
F4.0968284850028484e-05
aF0.003101640308835511
aF1.9727553073094287e-05
aF0.4459388032934378
aF0.17790458661048048
aF1.0
aF0.003614148696183424
aF0.00047518485925474827
aF0.0001696665212937739
aF-0.00020559607410088098
aF-8.886728560464408e-05
aF-4.959707439742051e-05
aF-4.939963950309279e-05
aF8.205503402149503e-05
aF0.00016120290367171284
aF0.0001873976234365937
aF4.238658278184362e-05
aF4.1311146156888483e-05
aa(lp234
F3.682768516983513e-05
aF0.0029140031240662105
aF1.886884197414346e-05
aF0.45526919929574705
aF0.13730638910806553
aF1.0
aF0.002549682269291533
aF0.0009558221588607765
aF0.0003089744301149609
aF3.903343830013204e-05
aF-0.00010031871752300287
aF-0.00017709508159061274
aF-0.0001537209264640046
aF2.4257990055317574e-05
aF-0.00011130798234896607
aF-0.00011967126539675079
aF-0.00014789436807302597
aF0.00023524142698447766
aa(lp235
F2.542558122365747e-05
aF0.003288104441084361
aF3.988121768052717e-05
aF0.5365366184966315
aF0.06616200248521556
aF1.0
aF4.4302406998061274e-05
aF0.0011144275643114995
aF-0.0002983797385736321
aF-8.957404509113935e-06
aF0.0002225868019345752
aF0.00014673232382451785
aF-0.0001118552452414137
aF0.0001508964738281558
aF-0.00026480929393219485
aF-0.00014393786027553764
aF0.00014164879786608168
aF-0.00010422625277264929
aasS'classification'
p236
(lp237
I4
aI6
aI0
aI4
aI6
aI5
aI0
aI0
aI3
aI4
aI1
aI6
aI5
aI0
aI3
aI4
aI6
aI5
aI0
aI0
aI4
aI4
aI1
aI6
aI0
aI4
aI1
aI6
aI5
aI0
aI0
aI3
aI1
aI6
aI5
aI0
aI6
aI5
aI0
aI1
aI6
aI5
aI0
aI3
aI2
aI6
aI6
aI0
aI0
aI3
aI6
aI0
aI3
aI4
aI1
aI6
aI0
aI4
aI6
aI0
aI0
aI3
aI1
aI5
aI0
aI3
aI3
aI1
aI5
aI0
aI3
aI2
aI4
aI1
aI3
aI1
aI6
aI0
aI1
aI5
aI0
aI3
aI1
aI0
aI4
aI1
aI0
aI3
aI3
aI1
aI6
aI0
aI2
aI4
aI1
aI6
aI5
aI0
aI3
aI4
aI6
aI0
aI3
aI4
aI4
aI1
aI6
aI5
aI0
aI3
aI1
aI5
aI0
aI3
aI2
aI4
aI1
aI6
aI0
aI3
aI4
aI6
aI5
aI0
aI4
aI1
aI6
aI5
aI0
aI0
aI3
aI4
aI1
aI6
aI5
aI0
aI3
aI3
aI1
aI6
aI5
aI0
aI4
aI1
aI6
aI0
aI3
aI2
aI6
aI0
aI0
aI0
aI3
aI1
aI6
aI5
aI0
aI3
aI1
aI0
aI5
aI0
aI3
aI2
aI4
aI6
aI0
aI0
aI0
aI1
aI5
aI3
aI5
aI0
aI3
aI1
aI0
aI2
aI4
aI1
aI6
aI0
aI3
aI2
aI1
aI6
aI5
aI0
aI0
aI3
aI3
aI4
aI6
aI0
aI0
aI2
aI4
aI1
aI6
aI0
aI3
aI2
aI4
aI4
aI1
aI6
aI2
aI1
aI6
aI0
aI3
aI1
aI6
aI5
aI0
aI0
aI3
aI1
aI6
aI5
aI0
aI0
aI3
aI4
aI1
aI6
aI5
aI0
aI3
aI1
aI6
aI6
aI0
as.