(dp0
S'data'
p1
(lp2
(lp3
F-0.5780692120867014
aF0.5555093784521475
aF-0.2667745317714018
aF0.9476193827675196
aF-0.1372150359157609
aF0.42365241426683165
aF0.5644363385873119
aF-0.25392344737501565
aF0.06263638188766533
aF0.06218817676511894
aF0.11667787710539095
aa(lp4
F-0.3799296705267639
aF0.6664668429124819
aF-0.36250778171415815
aF0.6797630193764849
aF-0.02217264392039442
aF0.28350661919414105
aF0.944619945276532
aF-0.5474052996646775
aF0.05351958906282372
aF0.05302711470039192
aF0.15159260075823736
aa(lp5
F-0.5955884504605229
aF0.36878191667819304
aF-0.2540588676888857
aF0.7389006928627809
aF-0.022861674699100876
aF0.12574365958555603
aF0.6859791650378665
aF-0.5429381013029408
aF0.058120947356390944
aF0.058549082232868616
aF0.15787544349260893
aa(lp6
F-0.6392102563447402
aF0.4867995476514318
aF-0.35130337458781097
aF0.8187106635924872
aF-0.056590956879181704
aF0.17406993324481557
aF0.7223498995507008
aF-0.5611731033401235
aF0.05764692857689962
aF0.05791819869017376
aF0.1688234519977824
aa(lp7
F-0.5179053793746562
aF0.4945198566944698
aF-0.46455637310507947
aF0.5488896901361191
aF-0.21940102267940598
aF0.24451244314375234
aF0.6887163074246346
aF-0.6425940299427901
aF0.053386888726466956
aF0.05314379410237079
aF0.15231895948292778
aa(lp8
F-0.43629254608773055
aF0.4858234831575567
aF-0.34983606286891505
aF0.5676495531862777
aF-0.058853503474950206
aF0.2207099303666073
aF0.8323654176718136
aF-0.5852706635204128
aF0.056071847128896055
aF0.056248083261201016
aF0.1451721705585332
aa(lp9
F-0.45564914444202953
aF0.6251702117307127
aF-0.37657079960695894
aF0.7277239307476576
aF-0.18694916213942836
aF0.4225811797087508
aF0.6577276307425501
aF-0.39915937062602996
aF0.05918851917730436
aF0.05887394424734259
aF0.14390281024790574
aa(lp10
F-0.6174385607142956
aF0.6338711637328995
aF-0.42269885368234883
aF0.8379851721234962
aF-0.17802855547550012
aF0.3763188916563103
aF0.8057754137887931
aF-0.5236764510736124
aF0.05510502982154214
aF0.054628639313396926
aF0.1468825277406845
aa(lp11
F-0.7303515237575531
aF0.6194189807051559
aF-0.4281250533547795
aF1.0175522977846263
aF-0.1950296584565641
aF0.3895229270117126
aF0.7509816777918292
aF-0.5238308857748099
aF0.05945551776204145
aF0.059191515149655066
aF0.14424977785944607
aa(lp12
F-0.706221102940942
aF0.5488949964088148
aF-0.3460609648587124
aF0.9519010944515466
aF-0.14899577238257264
aF0.3583398060945515
aF0.7485719186187125
aF-0.4759470313395173
aF0.0544097497864738
aF0.0540208760619487
aF0.13410449619916204
aasS'classification'
p13
(lp14
I0
aI0
aI1
aI1
aI3
aI4
aI4
aI7
aI7
aI7
as.